Archive member included to satisfy reference by file (symbol)

/opt/microchip/xc8/v2.46/avr/bin/../lib/gcc/avr/5.4.0/avrxmega3/libgcc.a(_copy_data.o)
                              build/default/production/mcc_generated_files/system/src/config_bits.o (__do_copy_data)
/opt/microchip/xc8/v2.46/avr/bin/../lib/gcc/avr/5.4.0/../../../../avr/lib/avrxmega3/libc.a(exit.o)
                              /home/mkhuthir/.mchp_packs/Microchip/ATmega_DFP/3.1.264/xc8/avr/lib/avrxmega3/crtatmega4808.o (exit)
/opt/microchip/xc8/v2.46/avr/bin/../lib/gcc/avr/5.4.0/../../../../avr/lib/avrxmega3/libc.a(__sio_printf_doux.o)
                              build/default/production/main.o (_printf_cdopuxX)
/opt/microchip/xc8/v2.46/avr/bin/../lib/gcc/avr/5.4.0/../../../../avr/lib/avrxmega3/libc.a(__fmt_d.o)
                              /opt/microchip/xc8/v2.46/avr/bin/../lib/gcc/avr/5.4.0/../../../../avr/lib/avrxmega3/libc.a(__sio_printf_doux.o) (__fmt_d_needed)
/opt/microchip/xc8/v2.46/avr/bin/../lib/gcc/avr/5.4.0/../../../../avr/lib/avrxmega3/libc.a(__fmt_o.o)
                              /opt/microchip/xc8/v2.46/avr/bin/../lib/gcc/avr/5.4.0/../../../../avr/lib/avrxmega3/libc.a(__sio_printf_doux.o) (__fmt_o_needed)
/opt/microchip/xc8/v2.46/avr/bin/../lib/gcc/avr/5.4.0/../../../../avr/lib/avrxmega3/libc.a(__fmt_s.o)
                              /opt/microchip/xc8/v2.46/avr/bin/../lib/gcc/avr/5.4.0/../../../../avr/lib/avrxmega3/libc.a(__sio_printf_doux.o) (__fmt_s_needed)
/opt/microchip/xc8/v2.46/avr/bin/../lib/gcc/avr/5.4.0/../../../../avr/lib/avrxmega3/libc.a(__fmt_u.o)
                              /opt/microchip/xc8/v2.46/avr/bin/../lib/gcc/avr/5.4.0/../../../../avr/lib/avrxmega3/libc.a(__fmt_d.o) (__cvt_u)
/opt/microchip/xc8/v2.46/avr/bin/../lib/gcc/avr/5.4.0/../../../../avr/lib/avrxmega3/libc.a(__fmt_x.o)
                              /opt/microchip/xc8/v2.46/avr/bin/../lib/gcc/avr/5.4.0/../../../../avr/lib/avrxmega3/libc.a(__sio_printf_doux.o) (__fmt_x_needed)
/opt/microchip/xc8/v2.46/avr/bin/../lib/gcc/avr/5.4.0/../../../../avr/lib/avrxmega3/libc.a(__pop_int.o)
                              /opt/microchip/xc8/v2.46/avr/bin/../lib/gcc/avr/5.4.0/../../../../avr/lib/avrxmega3/libc.a(__sio_printf_doux.o) (__pop_int_needed)
/opt/microchip/xc8/v2.46/avr/bin/../lib/gcc/avr/5.4.0/../../../../avr/lib/avrxmega3/libc.a(__printf_core.o)
                              /opt/microchip/xc8/v2.46/avr/bin/../lib/gcc/avr/5.4.0/../../../../avr/lib/avrxmega3/libc.a(__fmt_d.o) (__pad)
/opt/microchip/xc8/v2.46/avr/bin/../lib/gcc/avr/5.4.0/../../../../avr/lib/avrxmega3/libc.a(fputc.o)
                              /opt/microchip/xc8/v2.46/avr/bin/../lib/gcc/avr/5.4.0/../../../../avr/lib/avrxmega3/libc.a(__printf_core.o) (fputc)
/opt/microchip/xc8/v2.46/avr/bin/../lib/gcc/avr/5.4.0/../../../../avr/lib/avrxmega3/libc.a(stdout.o)
                              build/default/production/mcc_generated_files/uart/src/usart2.o (_stdout)
/opt/microchip/xc8/v2.46/avr/bin/../lib/gcc/avr/5.4.0/../../../../avr/lib/avrxmega3/libc.a(strlen.o)
                              /opt/microchip/xc8/v2.46/avr/bin/../lib/gcc/avr/5.4.0/../../../../avr/lib/avrxmega3/libc.a(__fmt_s.o) (strlen)
/opt/microchip/xc8/v2.46/avr/bin/../lib/gcc/avr/5.4.0/../../../../avr/lib/avrxmega3/libc.a(tolower.o)
                              /opt/microchip/xc8/v2.46/avr/bin/../lib/gcc/avr/5.4.0/../../../../avr/lib/avrxmega3/libc.a(__printf_core.o) (tolower)
/opt/microchip/xc8/v2.46/avr/bin/../lib/gcc/avr/5.4.0/../../../../avr/lib/avrxmega3/libc.a(toupper.o)
                              /opt/microchip/xc8/v2.46/avr/bin/../lib/gcc/avr/5.4.0/../../../../avr/lib/avrxmega3/libc.a(__fmt_x.o) (toupper)
/opt/microchip/xc8/v2.46/avr/bin/../lib/gcc/avr/5.4.0/../../../../avr/lib/avrxmega3/libc.a(errno.o)
                              /opt/microchip/xc8/v2.46/avr/bin/../lib/gcc/avr/5.4.0/../../../../avr/lib/avrxmega3/libc.a(__printf_core.o) (__errno_val)
/opt/microchip/xc8/v2.46/avr/bin/../lib/gcc/avr/5.4.0/../../../../avr/lib/avrxmega3/libc.a(_Exit.o)
                              /opt/microchip/xc8/v2.46/avr/bin/../lib/gcc/avr/5.4.0/../../../../avr/lib/avrxmega3/libc.a(exit.o) (_Exit)
/opt/microchip/xc8/v2.46/avr/bin/../lib/gcc/avr/5.4.0/../../../../avr/lib/avrxmega3/libc.a(__int_vfprintf.o)
                              /opt/microchip/xc8/v2.46/avr/bin/../lib/gcc/avr/5.4.0/../../../../avr/lib/avrxmega3/libc.a(__sio_printf_doux.o) (__vfprintf)
/opt/microchip/xc8/v2.46/avr/bin/../lib/gcc/avr/5.4.0/avrxmega3/libgcc.a(_udivmodsi4.o)
                              /opt/microchip/xc8/v2.46/avr/bin/../lib/gcc/avr/5.4.0/../../../../avr/lib/avrxmega3/libc.a(__fmt_u.o) (__udivmodsi4)
/opt/microchip/xc8/v2.46/avr/bin/../lib/gcc/avr/5.4.0/avrxmega3/libgcc.a(_exit.o)
                              /opt/microchip/xc8/v2.46/avr/bin/../lib/gcc/avr/5.4.0/../../../../avr/lib/avrxmega3/libc.a(_Exit.o) (_exit)
/opt/microchip/xc8/v2.46/avr/bin/../lib/gcc/avr/5.4.0/avrxmega3/libgcc.a(_prologue.o)
                              /opt/microchip/xc8/v2.46/avr/bin/../lib/gcc/avr/5.4.0/../../../../avr/lib/avrxmega3/libc.a(__sio_printf_doux.o) (__prologue_saves__)
/opt/microchip/xc8/v2.46/avr/bin/../lib/gcc/avr/5.4.0/avrxmega3/libgcc.a(_epilogue.o)
                              /opt/microchip/xc8/v2.46/avr/bin/../lib/gcc/avr/5.4.0/../../../../avr/lib/avrxmega3/libc.a(__sio_printf_doux.o) (__epilogue_restores__)

Allocating common symbols
Common symbol       size              file

__stdout_used       0x2               /opt/microchip/xc8/v2.46/avr/bin/../lib/gcc/avr/5.4.0/../../../../avr/lib/avrxmega3/libc.a(stdout.o)
__errno_val         0x2               /opt/microchip/xc8/v2.46/avr/bin/../lib/gcc/avr/5.4.0/../../../../avr/lib/avrxmega3/libc.a(errno.o)

Discarded input sections

 .data          0x0000000000000000        0x0 /home/mkhuthir/.mchp_packs/Microchip/ATmega_DFP/3.1.264/xc8/avr/lib/avrxmega3/crtatmega4808.o
 .bss           0x0000000000000000        0x0 /home/mkhuthir/.mchp_packs/Microchip/ATmega_DFP/3.1.264/xc8/avr/lib/avrxmega3/crtatmega4808.o
 .text          0x0000000000000000        0x0 build/default/production/mcc_generated_files/adc/src/adc0.o
 .data          0x0000000000000000        0x0 build/default/production/mcc_generated_files/adc/src/adc0.o
 .bss           0x0000000000000000        0x0 build/default/production/mcc_generated_files/adc/src/adc0.o
 .text.ADC0_Enable
                0x0000000000000000        0xc build/default/production/mcc_generated_files/adc/src/adc0.o
 .text.ADC0_Disable
                0x0000000000000000        0xc build/default/production/mcc_generated_files/adc/src/adc0.o
 .text.ADC0_EnableAutoTrigger
                0x0000000000000000        0xc build/default/production/mcc_generated_files/adc/src/adc0.o
 .text.ADC0_DisableAutoTrigger
                0x0000000000000000        0xc build/default/production/mcc_generated_files/adc/src/adc0.o
 .text.ADC0_SetWindowHigh
                0x0000000000000000        0xa build/default/production/mcc_generated_files/adc/src/adc0.o
 .text.ADC0_SetWindowLow
                0x0000000000000000        0xa build/default/production/mcc_generated_files/adc/src/adc0.o
 .text.ADC0_SetWindowMode
                0x0000000000000000        0x6 build/default/production/mcc_generated_files/adc/src/adc0.o
 .text.ADC0_SetWindowChannel
                0x0000000000000000        0x6 build/default/production/mcc_generated_files/adc/src/adc0.o
 .text.ADC0_StartConversion
                0x0000000000000000        0xc build/default/production/mcc_generated_files/adc/src/adc0.o
 .text.ADC0_GetConversionResult
                0x0000000000000000        0xa build/default/production/mcc_generated_files/adc/src/adc0.o
 .text.ADC0_GetWindowResult
                0x0000000000000000       0x10 build/default/production/mcc_generated_files/adc/src/adc0.o
 .text.ADC0_GetResolution
                0x0000000000000000       0x10 build/default/production/mcc_generated_files/adc/src/adc0.o
 .text.ADC0_RegisterWindowCallback
                0x0000000000000000        0xa build/default/production/mcc_generated_files/adc/src/adc0.o
 .text.ADC0_RegisterResrdyCallback
                0x0000000000000000        0xa build/default/production/mcc_generated_files/adc/src/adc0.o
 .text          0x0000000000000000        0x0 build/default/production/mcc_generated_files/system/src/pins.o
 .data          0x0000000000000000        0x0 build/default/production/mcc_generated_files/system/src/pins.o
 .bss           0x0000000000000000        0x0 build/default/production/mcc_generated_files/system/src/pins.o
 .text.RXD_SetInterruptHandler
                0x0000000000000000        0xa build/default/production/mcc_generated_files/system/src/pins.o
 .text.TXD_SetInterruptHandler
                0x0000000000000000        0xa build/default/production/mcc_generated_files/system/src/pins.o
 .text.IO_PD5_SetInterruptHandler
                0x0000000000000000        0xa build/default/production/mcc_generated_files/system/src/pins.o
 .text.LED_R_SetInterruptHandler
                0x0000000000000000        0xa build/default/production/mcc_generated_files/system/src/pins.o
 .text.LED_Y_SetInterruptHandler
                0x0000000000000000        0xa build/default/production/mcc_generated_files/system/src/pins.o
 .text.LED_G_SetInterruptHandler
                0x0000000000000000        0xa build/default/production/mcc_generated_files/system/src/pins.o
 .text.LED_B_SetInterruptHandler
                0x0000000000000000        0xa build/default/production/mcc_generated_files/system/src/pins.o
 .text          0x0000000000000000        0x0 build/default/production/mcc_generated_files/system/src/protected_io.o
 .data          0x0000000000000000        0x0 build/default/production/mcc_generated_files/system/src/protected_io.o
 .bss           0x0000000000000000        0x0 build/default/production/mcc_generated_files/system/src/protected_io.o
 .text          0x0000000000000000        0x0 build/default/production/mcc_generated_files/system/src/config_bits.o
 .data          0x0000000000000000        0x0 build/default/production/mcc_generated_files/system/src/config_bits.o
 .bss           0x0000000000000000        0x0 build/default/production/mcc_generated_files/system/src/config_bits.o
 .text          0x0000000000000000        0x0 build/default/production/mcc_generated_files/system/src/system.o
 .data          0x0000000000000000        0x0 build/default/production/mcc_generated_files/system/src/system.o
 .bss           0x0000000000000000        0x0 build/default/production/mcc_generated_files/system/src/system.o
 .text          0x0000000000000000        0x0 build/default/production/mcc_generated_files/system/src/interrupt.o
 .data          0x0000000000000000        0x0 build/default/production/mcc_generated_files/system/src/interrupt.o
 .bss           0x0000000000000000        0x0 build/default/production/mcc_generated_files/system/src/interrupt.o
 .text          0x0000000000000000        0x0 build/default/production/mcc_generated_files/system/src/clock.o
 .data          0x0000000000000000        0x0 build/default/production/mcc_generated_files/system/src/clock.o
 .bss           0x0000000000000000        0x0 build/default/production/mcc_generated_files/system/src/clock.o
 .text          0x0000000000000000        0x0 build/default/production/mcc_generated_files/uart/src/usart2.o
 .data          0x0000000000000000        0x0 build/default/production/mcc_generated_files/uart/src/usart2.o
 .bss           0x0000000000000000        0x0 build/default/production/mcc_generated_files/uart/src/usart2.o
 .text.USART2_Deinitialize
                0x0000000000000000       0x18 build/default/production/mcc_generated_files/uart/src/usart2.o
 .text.USART2_TransmitEnable
                0x0000000000000000        0xc build/default/production/mcc_generated_files/uart/src/usart2.o
 .text.USART2_TransmitDisable
                0x0000000000000000        0xc build/default/production/mcc_generated_files/uart/src/usart2.o
 .text.USART2_AutoBaudSet
                0x0000000000000000       0x28 build/default/production/mcc_generated_files/uart/src/usart2.o
 .text.USART2_AutoBaudQuery
                0x0000000000000000        0xa build/default/production/mcc_generated_files/uart/src/usart2.o
 .text.USART2_IsRxReady
                0x0000000000000000        0xc build/default/production/mcc_generated_files/uart/src/usart2.o
 .text.USART2_IsTxDone
                0x0000000000000000        0xc build/default/production/mcc_generated_files/uart/src/usart2.o
 .text.USART2_ErrorGet
                0x0000000000000000       0x72 build/default/production/mcc_generated_files/uart/src/usart2.o
 .text.USART2_Read
                0x0000000000000000        0x6 build/default/production/mcc_generated_files/uart/src/usart2.o
 .text.USART2_Write
                0x0000000000000000        0x6 build/default/production/mcc_generated_files/uart/src/usart2.o
 .text.USART2_FramingErrorCallbackRegister
                0x0000000000000000        0xe build/default/production/mcc_generated_files/uart/src/usart2.o
 .text.USART2_OverrunErrorCallbackRegister
                0x0000000000000000        0xe build/default/production/mcc_generated_files/uart/src/usart2.o
 .text.USART2_ParityErrorCallbackRegister
                0x0000000000000000        0xe build/default/production/mcc_generated_files/uart/src/usart2.o
 .text.USART2_Enable
                0x0000000000000000        0xc build/default/production/mcc_generated_files/uart/src/usart2.o
 .text.USART2_Disable
                0x0000000000000000        0xc build/default/production/mcc_generated_files/uart/src/usart2.o
 .text.USART2_ReceiveEnable
                0x0000000000000000        0xc build/default/production/mcc_generated_files/uart/src/usart2.o
 .text.USART2_ReceiveDisable
                0x0000000000000000        0xc build/default/production/mcc_generated_files/uart/src/usart2.o
 .text.USART2_IsAutoBaudDetectError
                0x0000000000000000        0xc build/default/production/mcc_generated_files/uart/src/usart2.o
 .text.USART2_AutoBaudDetectErrorReset
                0x0000000000000000       0x28 build/default/production/mcc_generated_files/uart/src/usart2.o
 .rodata.UART2  0x0000000000000000       0x30 build/default/production/mcc_generated_files/uart/src/usart2.o
 .text          0x0000000000000000        0x0 build/default/production/mcc_generated_files/vref/src/vref.o
 .data          0x0000000000000000        0x0 build/default/production/mcc_generated_files/vref/src/vref.o
 .bss           0x0000000000000000        0x0 build/default/production/mcc_generated_files/vref/src/vref.o
 .text          0x0000000000000000        0x0 build/default/production/main.o
 .data          0x0000000000000000        0x0 build/default/production/main.o
 .bss           0x0000000000000000        0x0 build/default/production/main.o
 .text          0x0000000000000000        0x0 build/default/production/sensors_handling.o
 .data          0x0000000000000000        0x0 build/default/production/sensors_handling.o
 .bss           0x0000000000000000        0x0 build/default/production/sensors_handling.o
 .text          0x0000000000000000        0x0 /opt/microchip/xc8/v2.46/avr/bin/../lib/gcc/avr/5.4.0/avrxmega3/libgcc.a(_copy_data.o)
 .data          0x0000000000000000        0x0 /opt/microchip/xc8/v2.46/avr/bin/../lib/gcc/avr/5.4.0/avrxmega3/libgcc.a(_copy_data.o)
 .bss           0x0000000000000000        0x0 /opt/microchip/xc8/v2.46/avr/bin/../lib/gcc/avr/5.4.0/avrxmega3/libgcc.a(_copy_data.o)
 .text.libgcc.mul
                0x0000000000000000        0x0 /opt/microchip/xc8/v2.46/avr/bin/../lib/gcc/avr/5.4.0/avrxmega3/libgcc.a(_copy_data.o)
 .text.libgcc.div
                0x0000000000000000        0x0 /opt/microchip/xc8/v2.46/avr/bin/../lib/gcc/avr/5.4.0/avrxmega3/libgcc.a(_copy_data.o)
 .text.libgcc   0x0000000000000000        0x0 /opt/microchip/xc8/v2.46/avr/bin/../lib/gcc/avr/5.4.0/avrxmega3/libgcc.a(_copy_data.o)
 .text.libgcc.prologue
                0x0000000000000000        0x0 /opt/microchip/xc8/v2.46/avr/bin/../lib/gcc/avr/5.4.0/avrxmega3/libgcc.a(_copy_data.o)
 .text.libgcc.builtins
                0x0000000000000000        0x0 /opt/microchip/xc8/v2.46/avr/bin/../lib/gcc/avr/5.4.0/avrxmega3/libgcc.a(_copy_data.o)
 .text.libgcc.fmul
                0x0000000000000000        0x0 /opt/microchip/xc8/v2.46/avr/bin/../lib/gcc/avr/5.4.0/avrxmega3/libgcc.a(_copy_data.o)
 .text.libgcc.fixed
                0x0000000000000000        0x0 /opt/microchip/xc8/v2.46/avr/bin/../lib/gcc/avr/5.4.0/avrxmega3/libgcc.a(_copy_data.o)
 .text          0x0000000000000000        0x0 /opt/microchip/xc8/v2.46/avr/bin/../lib/gcc/avr/5.4.0/../../../../avr/lib/avrxmega3/libc.a(exit.o)
 .data          0x0000000000000000        0x0 /opt/microchip/xc8/v2.46/avr/bin/../lib/gcc/avr/5.4.0/../../../../avr/lib/avrxmega3/libc.a(exit.o)
 .bss           0x0000000000000000        0x0 /opt/microchip/xc8/v2.46/avr/bin/../lib/gcc/avr/5.4.0/../../../../avr/lib/avrxmega3/libc.a(exit.o)
 .stack.descriptors
                0x0000000000000000       0x73 /opt/microchip/xc8/v2.46/avr/bin/../lib/gcc/avr/5.4.0/../../../../avr/lib/avrxmega3/libc.a(exit.o)
 .text          0x0000000000000000        0x0 /opt/microchip/xc8/v2.46/avr/bin/../lib/gcc/avr/5.4.0/../../../../avr/lib/avrxmega3/libc.a(__sio_printf_doux.o)
 .data          0x0000000000000000        0x0 /opt/microchip/xc8/v2.46/avr/bin/../lib/gcc/avr/5.4.0/../../../../avr/lib/avrxmega3/libc.a(__sio_printf_doux.o)
 .bss           0x0000000000000000        0x0 /opt/microchip/xc8/v2.46/avr/bin/../lib/gcc/avr/5.4.0/../../../../avr/lib/avrxmega3/libc.a(__sio_printf_doux.o)
 .stack.descriptors
                0x0000000000000000       0x3a /opt/microchip/xc8/v2.46/avr/bin/../lib/gcc/avr/5.4.0/../../../../avr/lib/avrxmega3/libc.a(__sio_printf_doux.o)
 .text.__sio_printf_doux
                0x0000000000000000       0x1a /opt/microchip/xc8/v2.46/avr/bin/../lib/gcc/avr/5.4.0/../../../../avr/lib/avrxmega3/libc.a(__sio_printf_doux.o)
 .text          0x0000000000000000        0x0 /opt/microchip/xc8/v2.46/avr/bin/../lib/gcc/avr/5.4.0/../../../../avr/lib/avrxmega3/libc.a(__fmt_d.o)
 .data          0x0000000000000000        0x0 /opt/microchip/xc8/v2.46/avr/bin/../lib/gcc/avr/5.4.0/../../../../avr/lib/avrxmega3/libc.a(__fmt_d.o)
 .bss           0x0000000000000000        0x0 /opt/microchip/xc8/v2.46/avr/bin/../lib/gcc/avr/5.4.0/../../../../avr/lib/avrxmega3/libc.a(__fmt_d.o)
 .stack.descriptors
                0x0000000000000000       0x15 /opt/microchip/xc8/v2.46/avr/bin/../lib/gcc/avr/5.4.0/../../../../avr/lib/avrxmega3/libc.a(__fmt_d.o)
 .text          0x0000000000000000        0x0 /opt/microchip/xc8/v2.46/avr/bin/../lib/gcc/avr/5.4.0/../../../../avr/lib/avrxmega3/libc.a(__fmt_o.o)
 .data          0x0000000000000000        0x0 /opt/microchip/xc8/v2.46/avr/bin/../lib/gcc/avr/5.4.0/../../../../avr/lib/avrxmega3/libc.a(__fmt_o.o)
 .bss           0x0000000000000000        0x0 /opt/microchip/xc8/v2.46/avr/bin/../lib/gcc/avr/5.4.0/../../../../avr/lib/avrxmega3/libc.a(__fmt_o.o)
 .stack.descriptors
                0x0000000000000000       0x15 /opt/microchip/xc8/v2.46/avr/bin/../lib/gcc/avr/5.4.0/../../../../avr/lib/avrxmega3/libc.a(__fmt_o.o)
 .text          0x0000000000000000        0x0 /opt/microchip/xc8/v2.46/avr/bin/../lib/gcc/avr/5.4.0/../../../../avr/lib/avrxmega3/libc.a(__fmt_s.o)
 .data          0x0000000000000000        0x0 /opt/microchip/xc8/v2.46/avr/bin/../lib/gcc/avr/5.4.0/../../../../avr/lib/avrxmega3/libc.a(__fmt_s.o)
 .bss           0x0000000000000000        0x0 /opt/microchip/xc8/v2.46/avr/bin/../lib/gcc/avr/5.4.0/../../../../avr/lib/avrxmega3/libc.a(__fmt_s.o)
 .stack.descriptors
                0x0000000000000000       0x15 /opt/microchip/xc8/v2.46/avr/bin/../lib/gcc/avr/5.4.0/../../../../avr/lib/avrxmega3/libc.a(__fmt_s.o)
 .text          0x0000000000000000        0x0 /opt/microchip/xc8/v2.46/avr/bin/../lib/gcc/avr/5.4.0/../../../../avr/lib/avrxmega3/libc.a(__fmt_u.o)
 .data          0x0000000000000000        0x0 /opt/microchip/xc8/v2.46/avr/bin/../lib/gcc/avr/5.4.0/../../../../avr/lib/avrxmega3/libc.a(__fmt_u.o)
 .bss           0x0000000000000000        0x0 /opt/microchip/xc8/v2.46/avr/bin/../lib/gcc/avr/5.4.0/../../../../avr/lib/avrxmega3/libc.a(__fmt_u.o)
 .stack.descriptors
                0x0000000000000000       0x2a /opt/microchip/xc8/v2.46/avr/bin/../lib/gcc/avr/5.4.0/../../../../avr/lib/avrxmega3/libc.a(__fmt_u.o)
 .text          0x0000000000000000        0x0 /opt/microchip/xc8/v2.46/avr/bin/../lib/gcc/avr/5.4.0/../../../../avr/lib/avrxmega3/libc.a(__fmt_x.o)
 .data          0x0000000000000000        0x0 /opt/microchip/xc8/v2.46/avr/bin/../lib/gcc/avr/5.4.0/../../../../avr/lib/avrxmega3/libc.a(__fmt_x.o)
 .bss           0x0000000000000000        0x0 /opt/microchip/xc8/v2.46/avr/bin/../lib/gcc/avr/5.4.0/../../../../avr/lib/avrxmega3/libc.a(__fmt_x.o)
 .stack.descriptors
                0x0000000000000000       0x15 /opt/microchip/xc8/v2.46/avr/bin/../lib/gcc/avr/5.4.0/../../../../avr/lib/avrxmega3/libc.a(__fmt_x.o)
 .text          0x0000000000000000        0x0 /opt/microchip/xc8/v2.46/avr/bin/../lib/gcc/avr/5.4.0/../../../../avr/lib/avrxmega3/libc.a(__pop_int.o)
 .data          0x0000000000000000        0x0 /opt/microchip/xc8/v2.46/avr/bin/../lib/gcc/avr/5.4.0/../../../../avr/lib/avrxmega3/libc.a(__pop_int.o)
 .bss           0x0000000000000000        0x0 /opt/microchip/xc8/v2.46/avr/bin/../lib/gcc/avr/5.4.0/../../../../avr/lib/avrxmega3/libc.a(__pop_int.o)
 .stack.descriptors
                0x0000000000000000       0x17 /opt/microchip/xc8/v2.46/avr/bin/../lib/gcc/avr/5.4.0/../../../../avr/lib/avrxmega3/libc.a(__pop_int.o)
 .text          0x0000000000000000        0x0 /opt/microchip/xc8/v2.46/avr/bin/../lib/gcc/avr/5.4.0/../../../../avr/lib/avrxmega3/libc.a(__printf_core.o)
 .data          0x0000000000000000        0x0 /opt/microchip/xc8/v2.46/avr/bin/../lib/gcc/avr/5.4.0/../../../../avr/lib/avrxmega3/libc.a(__printf_core.o)
 .bss           0x0000000000000000        0x0 /opt/microchip/xc8/v2.46/avr/bin/../lib/gcc/avr/5.4.0/../../../../avr/lib/avrxmega3/libc.a(__printf_core.o)
 .stack.descriptors
                0x0000000000000000       0x91 /opt/microchip/xc8/v2.46/avr/bin/../lib/gcc/avr/5.4.0/../../../../avr/lib/avrxmega3/libc.a(__printf_core.o)
 .text          0x0000000000000000        0x0 /opt/microchip/xc8/v2.46/avr/bin/../lib/gcc/avr/5.4.0/../../../../avr/lib/avrxmega3/libc.a(fputc.o)
 .data          0x0000000000000000        0x0 /opt/microchip/xc8/v2.46/avr/bin/../lib/gcc/avr/5.4.0/../../../../avr/lib/avrxmega3/libc.a(fputc.o)
 .bss           0x0000000000000000        0x0 /opt/microchip/xc8/v2.46/avr/bin/../lib/gcc/avr/5.4.0/../../../../avr/lib/avrxmega3/libc.a(fputc.o)
 .stack.descriptors
                0x0000000000000000       0x13 /opt/microchip/xc8/v2.46/avr/bin/../lib/gcc/avr/5.4.0/../../../../avr/lib/avrxmega3/libc.a(fputc.o)
 .text          0x0000000000000000        0x0 /opt/microchip/xc8/v2.46/avr/bin/../lib/gcc/avr/5.4.0/../../../../avr/lib/avrxmega3/libc.a(stdout.o)
 .data          0x0000000000000000        0x0 /opt/microchip/xc8/v2.46/avr/bin/../lib/gcc/avr/5.4.0/../../../../avr/lib/avrxmega3/libc.a(stdout.o)
 .bss           0x0000000000000000        0x0 /opt/microchip/xc8/v2.46/avr/bin/../lib/gcc/avr/5.4.0/../../../../avr/lib/avrxmega3/libc.a(stdout.o)
 .stack.descriptors
                0x0000000000000000       0x1b /opt/microchip/xc8/v2.46/avr/bin/../lib/gcc/avr/5.4.0/../../../../avr/lib/avrxmega3/libc.a(stdout.o)
 .text.__init_stdout
                0x0000000000000000       0x1e /opt/microchip/xc8/v2.46/avr/bin/../lib/gcc/avr/5.4.0/../../../../avr/lib/avrxmega3/libc.a(stdout.o)
 .data.f        0x0000000000000000       0x10 /opt/microchip/xc8/v2.46/avr/bin/../lib/gcc/avr/5.4.0/../../../../avr/lib/avrxmega3/libc.a(stdout.o)
 COMMON         0x0000000000000000        0x2 /opt/microchip/xc8/v2.46/avr/bin/../lib/gcc/avr/5.4.0/../../../../avr/lib/avrxmega3/libc.a(stdout.o)
 .text          0x0000000000000000        0x0 /opt/microchip/xc8/v2.46/avr/bin/../lib/gcc/avr/5.4.0/../../../../avr/lib/avrxmega3/libc.a(strlen.o)
 .data          0x0000000000000000        0x0 /opt/microchip/xc8/v2.46/avr/bin/../lib/gcc/avr/5.4.0/../../../../avr/lib/avrxmega3/libc.a(strlen.o)
 .bss           0x0000000000000000        0x0 /opt/microchip/xc8/v2.46/avr/bin/../lib/gcc/avr/5.4.0/../../../../avr/lib/avrxmega3/libc.a(strlen.o)
 .stack.descriptors
                0x0000000000000000       0x14 /opt/microchip/xc8/v2.46/avr/bin/../lib/gcc/avr/5.4.0/../../../../avr/lib/avrxmega3/libc.a(strlen.o)
 .text          0x0000000000000000        0x0 /opt/microchip/xc8/v2.46/avr/bin/../lib/gcc/avr/5.4.0/../../../../avr/lib/avrxmega3/libc.a(tolower.o)
 .data          0x0000000000000000        0x0 /opt/microchip/xc8/v2.46/avr/bin/../lib/gcc/avr/5.4.0/../../../../avr/lib/avrxmega3/libc.a(tolower.o)
 .bss           0x0000000000000000        0x0 /opt/microchip/xc8/v2.46/avr/bin/../lib/gcc/avr/5.4.0/../../../../avr/lib/avrxmega3/libc.a(tolower.o)
 .stack.descriptors
                0x0000000000000000       0x2e /opt/microchip/xc8/v2.46/avr/bin/../lib/gcc/avr/5.4.0/../../../../avr/lib/avrxmega3/libc.a(tolower.o)
 .text.__tolower_l
                0x0000000000000000        0x6 /opt/microchip/xc8/v2.46/avr/bin/../lib/gcc/avr/5.4.0/../../../../avr/lib/avrxmega3/libc.a(tolower.o)
 .text          0x0000000000000000        0x0 /opt/microchip/xc8/v2.46/avr/bin/../lib/gcc/avr/5.4.0/../../../../avr/lib/avrxmega3/libc.a(toupper.o)
 .data          0x0000000000000000        0x0 /opt/microchip/xc8/v2.46/avr/bin/../lib/gcc/avr/5.4.0/../../../../avr/lib/avrxmega3/libc.a(toupper.o)
 .bss           0x0000000000000000        0x0 /opt/microchip/xc8/v2.46/avr/bin/../lib/gcc/avr/5.4.0/../../../../avr/lib/avrxmega3/libc.a(toupper.o)
 .stack.descriptors
                0x0000000000000000       0x2e /opt/microchip/xc8/v2.46/avr/bin/../lib/gcc/avr/5.4.0/../../../../avr/lib/avrxmega3/libc.a(toupper.o)
 .text.__toupper_l
                0x0000000000000000        0x6 /opt/microchip/xc8/v2.46/avr/bin/../lib/gcc/avr/5.4.0/../../../../avr/lib/avrxmega3/libc.a(toupper.o)
 .text          0x0000000000000000        0x0 /opt/microchip/xc8/v2.46/avr/bin/../lib/gcc/avr/5.4.0/../../../../avr/lib/avrxmega3/libc.a(errno.o)
 .data          0x0000000000000000        0x0 /opt/microchip/xc8/v2.46/avr/bin/../lib/gcc/avr/5.4.0/../../../../avr/lib/avrxmega3/libc.a(errno.o)
 .bss           0x0000000000000000        0x0 /opt/microchip/xc8/v2.46/avr/bin/../lib/gcc/avr/5.4.0/../../../../avr/lib/avrxmega3/libc.a(errno.o)
 .text          0x0000000000000000        0x0 /opt/microchip/xc8/v2.46/avr/bin/../lib/gcc/avr/5.4.0/../../../../avr/lib/avrxmega3/libc.a(_Exit.o)
 .data          0x0000000000000000        0x0 /opt/microchip/xc8/v2.46/avr/bin/../lib/gcc/avr/5.4.0/../../../../avr/lib/avrxmega3/libc.a(_Exit.o)
 .bss           0x0000000000000000        0x0 /opt/microchip/xc8/v2.46/avr/bin/../lib/gcc/avr/5.4.0/../../../../avr/lib/avrxmega3/libc.a(_Exit.o)
 .stack.descriptors
                0x0000000000000000       0x13 /opt/microchip/xc8/v2.46/avr/bin/../lib/gcc/avr/5.4.0/../../../../avr/lib/avrxmega3/libc.a(_Exit.o)
 .text          0x0000000000000000        0x0 /opt/microchip/xc8/v2.46/avr/bin/../lib/gcc/avr/5.4.0/../../../../avr/lib/avrxmega3/libc.a(__int_vfprintf.o)
 .data          0x0000000000000000        0x0 /opt/microchip/xc8/v2.46/avr/bin/../lib/gcc/avr/5.4.0/../../../../avr/lib/avrxmega3/libc.a(__int_vfprintf.o)
 .bss           0x0000000000000000        0x0 /opt/microchip/xc8/v2.46/avr/bin/../lib/gcc/avr/5.4.0/../../../../avr/lib/avrxmega3/libc.a(__int_vfprintf.o)
 .stack.descriptors
                0x0000000000000000       0x18 /opt/microchip/xc8/v2.46/avr/bin/../lib/gcc/avr/5.4.0/../../../../avr/lib/avrxmega3/libc.a(__int_vfprintf.o)
 .text          0x0000000000000000        0x0 /opt/microchip/xc8/v2.46/avr/bin/../lib/gcc/avr/5.4.0/avrxmega3/libgcc.a(_udivmodsi4.o)
 .data          0x0000000000000000        0x0 /opt/microchip/xc8/v2.46/avr/bin/../lib/gcc/avr/5.4.0/avrxmega3/libgcc.a(_udivmodsi4.o)
 .bss           0x0000000000000000        0x0 /opt/microchip/xc8/v2.46/avr/bin/../lib/gcc/avr/5.4.0/avrxmega3/libgcc.a(_udivmodsi4.o)
 .text.libgcc.mul
                0x0000000000000000        0x0 /opt/microchip/xc8/v2.46/avr/bin/../lib/gcc/avr/5.4.0/avrxmega3/libgcc.a(_udivmodsi4.o)
 .stack.descriptors
                0x0000000000000000       0x1a /opt/microchip/xc8/v2.46/avr/bin/../lib/gcc/avr/5.4.0/avrxmega3/libgcc.a(_udivmodsi4.o)
 .text.libgcc   0x0000000000000000        0x0 /opt/microchip/xc8/v2.46/avr/bin/../lib/gcc/avr/5.4.0/avrxmega3/libgcc.a(_udivmodsi4.o)
 .text.libgcc.prologue
                0x0000000000000000        0x0 /opt/microchip/xc8/v2.46/avr/bin/../lib/gcc/avr/5.4.0/avrxmega3/libgcc.a(_udivmodsi4.o)
 .text.libgcc.builtins
                0x0000000000000000        0x0 /opt/microchip/xc8/v2.46/avr/bin/../lib/gcc/avr/5.4.0/avrxmega3/libgcc.a(_udivmodsi4.o)
 .text.libgcc.fmul
                0x0000000000000000        0x0 /opt/microchip/xc8/v2.46/avr/bin/../lib/gcc/avr/5.4.0/avrxmega3/libgcc.a(_udivmodsi4.o)
 .text.libgcc.fixed
                0x0000000000000000        0x0 /opt/microchip/xc8/v2.46/avr/bin/../lib/gcc/avr/5.4.0/avrxmega3/libgcc.a(_udivmodsi4.o)
 .text          0x0000000000000000        0x0 /opt/microchip/xc8/v2.46/avr/bin/../lib/gcc/avr/5.4.0/avrxmega3/libgcc.a(_exit.o)
 .data          0x0000000000000000        0x0 /opt/microchip/xc8/v2.46/avr/bin/../lib/gcc/avr/5.4.0/avrxmega3/libgcc.a(_exit.o)
 .bss           0x0000000000000000        0x0 /opt/microchip/xc8/v2.46/avr/bin/../lib/gcc/avr/5.4.0/avrxmega3/libgcc.a(_exit.o)
 .text.libgcc.mul
                0x0000000000000000        0x0 /opt/microchip/xc8/v2.46/avr/bin/../lib/gcc/avr/5.4.0/avrxmega3/libgcc.a(_exit.o)
 .text.libgcc.div
                0x0000000000000000        0x0 /opt/microchip/xc8/v2.46/avr/bin/../lib/gcc/avr/5.4.0/avrxmega3/libgcc.a(_exit.o)
 .text.libgcc   0x0000000000000000        0x0 /opt/microchip/xc8/v2.46/avr/bin/../lib/gcc/avr/5.4.0/avrxmega3/libgcc.a(_exit.o)
 .text.libgcc.prologue
                0x0000000000000000        0x0 /opt/microchip/xc8/v2.46/avr/bin/../lib/gcc/avr/5.4.0/avrxmega3/libgcc.a(_exit.o)
 .stack.descriptors
                0x0000000000000000       0x13 /opt/microchip/xc8/v2.46/avr/bin/../lib/gcc/avr/5.4.0/avrxmega3/libgcc.a(_exit.o)
 .text.libgcc.builtins
                0x0000000000000000        0x0 /opt/microchip/xc8/v2.46/avr/bin/../lib/gcc/avr/5.4.0/avrxmega3/libgcc.a(_exit.o)
 .text.libgcc.fmul
                0x0000000000000000        0x0 /opt/microchip/xc8/v2.46/avr/bin/../lib/gcc/avr/5.4.0/avrxmega3/libgcc.a(_exit.o)
 .text.libgcc.fixed
                0x0000000000000000        0x0 /opt/microchip/xc8/v2.46/avr/bin/../lib/gcc/avr/5.4.0/avrxmega3/libgcc.a(_exit.o)
 .text          0x0000000000000000        0x0 /opt/microchip/xc8/v2.46/avr/bin/../lib/gcc/avr/5.4.0/avrxmega3/libgcc.a(_prologue.o)
 .data          0x0000000000000000        0x0 /opt/microchip/xc8/v2.46/avr/bin/../lib/gcc/avr/5.4.0/avrxmega3/libgcc.a(_prologue.o)
 .bss           0x0000000000000000        0x0 /opt/microchip/xc8/v2.46/avr/bin/../lib/gcc/avr/5.4.0/avrxmega3/libgcc.a(_prologue.o)
 .text.libgcc.mul
                0x0000000000000000        0x0 /opt/microchip/xc8/v2.46/avr/bin/../lib/gcc/avr/5.4.0/avrxmega3/libgcc.a(_prologue.o)
 .text.libgcc.div
                0x0000000000000000        0x0 /opt/microchip/xc8/v2.46/avr/bin/../lib/gcc/avr/5.4.0/avrxmega3/libgcc.a(_prologue.o)
 .text.libgcc   0x0000000000000000        0x0 /opt/microchip/xc8/v2.46/avr/bin/../lib/gcc/avr/5.4.0/avrxmega3/libgcc.a(_prologue.o)
 .text.libgcc.builtins
                0x0000000000000000        0x0 /opt/microchip/xc8/v2.46/avr/bin/../lib/gcc/avr/5.4.0/avrxmega3/libgcc.a(_prologue.o)
 .text.libgcc.fmul
                0x0000000000000000        0x0 /opt/microchip/xc8/v2.46/avr/bin/../lib/gcc/avr/5.4.0/avrxmega3/libgcc.a(_prologue.o)
 .text.libgcc.fixed
                0x0000000000000000        0x0 /opt/microchip/xc8/v2.46/avr/bin/../lib/gcc/avr/5.4.0/avrxmega3/libgcc.a(_prologue.o)
 .text          0x0000000000000000        0x0 /opt/microchip/xc8/v2.46/avr/bin/../lib/gcc/avr/5.4.0/avrxmega3/libgcc.a(_epilogue.o)
 .data          0x0000000000000000        0x0 /opt/microchip/xc8/v2.46/avr/bin/../lib/gcc/avr/5.4.0/avrxmega3/libgcc.a(_epilogue.o)
 .bss           0x0000000000000000        0x0 /opt/microchip/xc8/v2.46/avr/bin/../lib/gcc/avr/5.4.0/avrxmega3/libgcc.a(_epilogue.o)
 .text.libgcc.mul
                0x0000000000000000        0x0 /opt/microchip/xc8/v2.46/avr/bin/../lib/gcc/avr/5.4.0/avrxmega3/libgcc.a(_epilogue.o)
 .text.libgcc.div
                0x0000000000000000        0x0 /opt/microchip/xc8/v2.46/avr/bin/../lib/gcc/avr/5.4.0/avrxmega3/libgcc.a(_epilogue.o)
 .text.libgcc   0x0000000000000000        0x0 /opt/microchip/xc8/v2.46/avr/bin/../lib/gcc/avr/5.4.0/avrxmega3/libgcc.a(_epilogue.o)
 .text.libgcc.builtins
                0x0000000000000000        0x0 /opt/microchip/xc8/v2.46/avr/bin/../lib/gcc/avr/5.4.0/avrxmega3/libgcc.a(_epilogue.o)
 .text.libgcc.fmul
                0x0000000000000000        0x0 /opt/microchip/xc8/v2.46/avr/bin/../lib/gcc/avr/5.4.0/avrxmega3/libgcc.a(_epilogue.o)
 .text.libgcc.fixed
                0x0000000000000000        0x0 /opt/microchip/xc8/v2.46/avr/bin/../lib/gcc/avr/5.4.0/avrxmega3/libgcc.a(_epilogue.o)

Memory Configuration

Name             Origin             Length             Attributes
text             0x0000000000000000 0x000000000000c000 xr
data             0x0000000000802800 0x0000000000001800 rw !x
eeprom           0x0000000000810000 0x0000000000000100 rw !x
fuse             0x0000000000820000 0x000000000000000a rw !x
lock             0x0000000000830000 0x0000000000000400 rw !x
signature        0x0000000000840000 0x0000000000000400 rw !x
user_signatures  0x0000000000850000 0x0000000000000400 rw !x
bootrow          0x0000000000860000 0x0000000000000400 rw !x
*default*        0x0000000000000000 0xffffffffffffffff

Linker script and memory map

Address of section .data set to 0x802800
                0x0000000000004000                __RODATA_PM_OFFSET__ = 0x4000
LOAD /home/mkhuthir/.mchp_packs/Microchip/ATmega_DFP/3.1.264/xc8/avr/lib/avrxmega3/crtatmega4808.o
                0x0000000000000001                __MPLAB_BUILD = 0x1
LOAD build/default/production/mcc_generated_files/adc/src/adc0.o
LOAD build/default/production/mcc_generated_files/system/src/pins.o
LOAD build/default/production/mcc_generated_files/system/src/protected_io.o
LOAD build/default/production/mcc_generated_files/system/src/config_bits.o
LOAD build/default/production/mcc_generated_files/system/src/system.o
LOAD build/default/production/mcc_generated_files/system/src/interrupt.o
LOAD build/default/production/mcc_generated_files/system/src/clock.o
LOAD build/default/production/mcc_generated_files/uart/src/usart2.o
LOAD build/default/production/mcc_generated_files/vref/src/vref.o
LOAD build/default/production/main.o
LOAD build/default/production/sensors_handling.o
START GROUP
LOAD /opt/microchip/xc8/v2.46/avr/bin/../lib/gcc/avr/5.4.0/../../../../avr/lib/avrxmega3/libm.a
END GROUP
START GROUP
LOAD /opt/microchip/xc8/v2.46/avr/bin/../lib/gcc/avr/5.4.0/avrxmega3/libgcc.a
LOAD /opt/microchip/xc8/v2.46/avr/bin/../lib/gcc/avr/5.4.0/../../../../avr/lib/avrxmega3/libm.a
LOAD /opt/microchip/xc8/v2.46/avr/bin/../lib/gcc/avr/5.4.0/../../../../avr/lib/avrxmega3/libc.a
LOAD /home/mkhuthir/.mchp_packs/Microchip/ATmega_DFP/3.1.264/xc8/avr/lib/avrxmega3/libatmega4808.a
END GROUP
                [0x0000000000000000]                __TEXT_REGION_ORIGIN__ = DEFINED (__TEXT_REGION_ORIGIN__)?__TEXT_REGION_ORIGIN__:0x0
                [0x0000000000802800]                __DATA_REGION_ORIGIN__ = DEFINED (__DATA_REGION_ORIGIN__)?__DATA_REGION_ORIGIN__:0x802000
                [0x000000000000c000]                __TEXT_REGION_LENGTH__ = DEFINED (__TEXT_REGION_LENGTH__)?__TEXT_REGION_LENGTH__:0x100000
                [0x0000000000001800]                __DATA_REGION_LENGTH__ = DEFINED (__DATA_REGION_LENGTH__)?__DATA_REGION_LENGTH__:0xffa0
                [0x0000000000000100]                __EEPROM_REGION_LENGTH__ = DEFINED (__EEPROM_REGION_LENGTH__)?__EEPROM_REGION_LENGTH__:0x10000
                [0x000000000000000a]                __FUSE_REGION_LENGTH__ = DEFINED (__FUSE_REGION_LENGTH__)?__FUSE_REGION_LENGTH__:0x400
                0x0000000000000400                __LOCK_REGION_LENGTH__ = DEFINED (__LOCK_REGION_LENGTH__)?__LOCK_REGION_LENGTH__:0x400
                0x0000000000000400                __SIGNATURE_REGION_LENGTH__ = DEFINED (__SIGNATURE_REGION_LENGTH__)?__SIGNATURE_REGION_LENGTH__:0x400
                0x0000000000000400                __USER_SIGNATURE_REGION_LENGTH__ = DEFINED (__USER_SIGNATURE_REGION_LENGTH__)?__USER_SIGNATURE_REGION_LENGTH__:0x400
                0x0000000000008000                __RODATA_PM_OFFSET__ = DEFINED (__RODATA_PM_OFFSET__)?__RODATA_PM_OFFSET__:0x8000
                0x0000000000000400                __BOOTROW_REGION_LENGTH__ = DEFINED (__BOOTROW_REGION_LENGTH__)?__BOOTROW_REGION_LENGTH__:0x400

.hash
 *(.hash)

.dynsym
 *(.dynsym)

.dynstr
 *(.dynstr)

.gnu.version
 *(.gnu.version)

.gnu.version_d
 *(.gnu.version_d)

.gnu.version_r
 *(.gnu.version_r)

.rel.init
 *(.rel.init)

.rela.init
 *(.rela.init)

.rel.text
 *(.rel.text)
 *(.rel.text.*)
 *(.rel.gnu.linkonce.t*)

.rela.text
 *(.rela.text)
 *(.rela.text.*)
 *(.rela.gnu.linkonce.t*)

.rel.fini
 *(.rel.fini)

.rela.fini
 *(.rela.fini)

.rel.rodata
 *(.rel.rodata)
 *(.rel.rodata.*)
 *(.rel.gnu.linkonce.r*)

.rela.rodata
 *(.rela.rodata)
 *(.rela.rodata.*)
 *(.rela.gnu.linkonce.r*)

.rel.data
 *(.rel.data)
 *(.rel.data.*)
 *(.rel.gnu.linkonce.d*)

.rela.data
 *(.rela.data)
 *(.rela.data.*)
 *(.rela.gnu.linkonce.d*)

.rel.ctors
 *(.rel.ctors)

.rela.ctors
 *(.rela.ctors)

.rel.dtors
 *(.rel.dtors)

.rela.dtors
 *(.rela.dtors)

.rel.got
 *(.rel.got)

.rela.got
 *(.rela.got)

.rel.bss
 *(.rel.bss)

.rela.bss
 *(.rela.bss)

.rel.plt
 *(.rel.plt)

.rela.plt
 *(.rela.plt)

.text           0x0000000000000000      0x102
 *(.vectors)
 .vectors       0x0000000000000000       0x90 /home/mkhuthir/.mchp_packs/Microchip/ATmega_DFP/3.1.264/xc8/avr/lib/avrxmega3/crtatmega4808.o
                0x0000000000000000                __vectors
                0x0000000000000000                __vector_default
 *(.vectors)
 *(.progmem.gcc*)
 *(.dinit)
 .dinit         0x0000000000000090       0x1d data_init
                0x00000000000000ae                . = ALIGN (0x2)
 *fill*         0x00000000000000ad        0x1 
                0x00000000000000ae                __trampolines_start = .
 *(.trampolines)
 .trampolines   0x00000000000000ae        0x0 linker stubs
 *(.trampolines*)
                0x00000000000000ae                __trampolines_end = .
 *libprintf_flt.a:*(.progmem.data)
 *libc.a:*(.progmem.data)
                0x00000000000000ae                . = ALIGN (0x2)
 *(.jumptables)
 *(.jumptables*)
 *(.lowtext)
 *(.lowtext*)
                0x00000000000000ae                __ctors_start = .
 *(.ctors)
                0x00000000000000ae                __ctors_end = .
                0x00000000000000ae                __dtors_start = .
 *(.dtors)
                0x00000000000000ae                __dtors_end = .
 SORT(*)(.ctors)
 SORT(*)(.dtors)
 *(.init0)
 .init0         0x00000000000000ae        0x0 /home/mkhuthir/.mchp_packs/Microchip/ATmega_DFP/3.1.264/xc8/avr/lib/avrxmega3/crtatmega4808.o
                0x00000000000000ae                __init
 *(.init0)
 *(.init1)
 *(.init1)
 *(.init2)
 .init2         0x00000000000000ae        0xc /home/mkhuthir/.mchp_packs/Microchip/ATmega_DFP/3.1.264/xc8/avr/lib/avrxmega3/crtatmega4808.o
 *(.init2)
 *(.init3)
 *(.init3)
 *(.init4)
 .init4         0x00000000000000ba       0x3c /opt/microchip/xc8/v2.46/avr/bin/../lib/gcc/avr/5.4.0/avrxmega3/libgcc.a(_copy_data.o)
                0x00000000000000ba                __do_copy_data
                0x00000000000000e8                __do_clear_bss
 *(.init4)
 *(.init5)
 *(.init5)
 *(.init6)
 *(.init6)
 *(.init7)
 *(.init7)
 *(.init8)
 *(.init8)
 *(.init9)
 .init9         0x00000000000000f6        0x8 /home/mkhuthir/.mchp_packs/Microchip/ATmega_DFP/3.1.264/xc8/avr/lib/avrxmega3/crtatmega4808.o
 *(.init9)
                0x00000000000000fe                . = ALIGN (0x2)
 *(.fini9)
 .fini9         0x00000000000000fe        0x0 /opt/microchip/xc8/v2.46/avr/bin/../lib/gcc/avr/5.4.0/avrxmega3/libgcc.a(_exit.o)
                0x00000000000000fe                _exit
 *(.fini9)
 *(.fini8)
 *(.fini8)
 *(.fini7)
 *(.fini7)
 *(.fini6)
 *(.fini6)
 *(.fini5)
 *(.fini5)
 *(.fini4)
 *(.fini4)
 *(.fini3)
 *(.fini3)
 *(.fini2)
 *(.fini2)
 *(.fini1)
 *(.fini1)
 *(.fini0)
 .fini0         0x00000000000000fe        0x4 /opt/microchip/xc8/v2.46/avr/bin/../lib/gcc/avr/5.4.0/avrxmega3/libgcc.a(_exit.o)
 *(.fini0)
                0x0000000000000102                _etext = .

.data           0x0000000000802800        0x0 load address 0x0000000000000102
                [!provide]                        PROVIDE (__data_start, .)
 *(.gnu.linkonce.d*)
                0x0000000000802800                . = ALIGN (0x2)
                0x0000000000802800                _edata = .
                [!provide]                        PROVIDE (__data_end, .)

.bss            0x0000000000802800        0x2
                [!provide]                        PROVIDE (__bss_start, .)
 *(COMMON)
 COMMON         0x0000000000802800        0x2 /opt/microchip/xc8/v2.46/avr/bin/../lib/gcc/avr/5.4.0/../../../../avr/lib/avrxmega3/libc.a(errno.o)
                0x0000000000802800                __errno_val
                [!provide]                        PROVIDE (__bss_end, .)
                0x0000000000000102                __data_load_start = LOADADDR (.data)
                0x0000000000000102                __data_load_end = (__data_load_start + SIZEOF (.data))

.noinit         0x0000000000802802        0x0
                [!provide]                        PROVIDE (__noinit_start, .)
 *(.noinit*)
                [!provide]                        PROVIDE (__noinit_end, .)
                0x0000000000802802                _end = .

.eeprom         0x0000000000810000        0x0
 *(.eeprom*)
                0x0000000000810000                __eeprom_end = .

.fuse           0x0000000000820000        0x9
 *(.fuse)
 .fuse          0x0000000000820000        0x9 build/default/production/mcc_generated_files/system/src/config_bits.o
                0x0000000000820000                __fuse
 *(.lfuse)
 *(.hfuse)
 *(.efuse)

.lock
 *(.lock*)

.signature
 *(.signature*)

.user_signatures
 *(.user_signatures*)

.bootrow
 *(.bootrow*)

.stab
 *(.stab)

.stabstr
 *(.stabstr)

.stab.excl
 *(.stab.excl)

.stab.exclstr
 *(.stab.exclstr)

.stab.index
 *(.stab.index)

.stab.indexstr
 *(.stab.indexstr)

.comment        0x0000000000000000       0x5b
 *(.comment)
 .comment       0x0000000000000000       0x2f build/default/production/mcc_generated_files/adc/src/adc0.o
                                         0x30 (size before relaxing)
 .comment       0x000000000000002f       0x30 build/default/production/mcc_generated_files/system/src/pins.o
 .comment       0x000000000000002f       0x30 build/default/production/mcc_generated_files/system/src/config_bits.o
 .comment       0x000000000000002f       0x30 build/default/production/mcc_generated_files/system/src/system.o
 .comment       0x000000000000002f       0x30 build/default/production/mcc_generated_files/system/src/interrupt.o
 .comment       0x000000000000002f       0x30 build/default/production/mcc_generated_files/system/src/clock.o
 .comment       0x000000000000002f       0x30 build/default/production/mcc_generated_files/uart/src/usart2.o
 .comment       0x000000000000002f       0x30 build/default/production/mcc_generated_files/vref/src/vref.o
 .comment       0x000000000000002f       0x30 build/default/production/main.o
 .comment       0x000000000000002f       0x30 build/default/production/sensors_handling.o
 .comment       0x000000000000002f       0x2c /opt/microchip/xc8/v2.46/avr/bin/../lib/gcc/avr/5.4.0/../../../../avr/lib/avrxmega3/libc.a(exit.o)
                                         0x2d (size before relaxing)
 .comment       0x000000000000005b       0x2d /opt/microchip/xc8/v2.46/avr/bin/../lib/gcc/avr/5.4.0/../../../../avr/lib/avrxmega3/libc.a(__sio_printf_doux.o)
 .comment       0x000000000000005b       0x2d /opt/microchip/xc8/v2.46/avr/bin/../lib/gcc/avr/5.4.0/../../../../avr/lib/avrxmega3/libc.a(__fmt_d.o)
 .comment       0x000000000000005b       0x2d /opt/microchip/xc8/v2.46/avr/bin/../lib/gcc/avr/5.4.0/../../../../avr/lib/avrxmega3/libc.a(__fmt_o.o)
 .comment       0x000000000000005b       0x2d /opt/microchip/xc8/v2.46/avr/bin/../lib/gcc/avr/5.4.0/../../../../avr/lib/avrxmega3/libc.a(__fmt_s.o)
 .comment       0x000000000000005b       0x2d /opt/microchip/xc8/v2.46/avr/bin/../lib/gcc/avr/5.4.0/../../../../avr/lib/avrxmega3/libc.a(__fmt_u.o)
 .comment       0x000000000000005b       0x2d /opt/microchip/xc8/v2.46/avr/bin/../lib/gcc/avr/5.4.0/../../../../avr/lib/avrxmega3/libc.a(__fmt_x.o)
 .comment       0x000000000000005b       0x2d /opt/microchip/xc8/v2.46/avr/bin/../lib/gcc/avr/5.4.0/../../../../avr/lib/avrxmega3/libc.a(__pop_int.o)
 .comment       0x000000000000005b       0x2d /opt/microchip/xc8/v2.46/avr/bin/../lib/gcc/avr/5.4.0/../../../../avr/lib/avrxmega3/libc.a(__printf_core.o)
 .comment       0x000000000000005b       0x2d /opt/microchip/xc8/v2.46/avr/bin/../lib/gcc/avr/5.4.0/../../../../avr/lib/avrxmega3/libc.a(fputc.o)
 .comment       0x000000000000005b       0x2d /opt/microchip/xc8/v2.46/avr/bin/../lib/gcc/avr/5.4.0/../../../../avr/lib/avrxmega3/libc.a(stdout.o)
 .comment       0x000000000000005b       0x2d /opt/microchip/xc8/v2.46/avr/bin/../lib/gcc/avr/5.4.0/../../../../avr/lib/avrxmega3/libc.a(strlen.o)
 .comment       0x000000000000005b       0x2d /opt/microchip/xc8/v2.46/avr/bin/../lib/gcc/avr/5.4.0/../../../../avr/lib/avrxmega3/libc.a(tolower.o)
 .comment       0x000000000000005b       0x2d /opt/microchip/xc8/v2.46/avr/bin/../lib/gcc/avr/5.4.0/../../../../avr/lib/avrxmega3/libc.a(toupper.o)
 .comment       0x000000000000005b       0x2d /opt/microchip/xc8/v2.46/avr/bin/../lib/gcc/avr/5.4.0/../../../../avr/lib/avrxmega3/libc.a(errno.o)
 .comment       0x000000000000005b       0x2d /opt/microchip/xc8/v2.46/avr/bin/../lib/gcc/avr/5.4.0/../../../../avr/lib/avrxmega3/libc.a(_Exit.o)
 .comment       0x000000000000005b       0x2d /opt/microchip/xc8/v2.46/avr/bin/../lib/gcc/avr/5.4.0/../../../../avr/lib/avrxmega3/libc.a(__int_vfprintf.o)

.stack.descriptors.hdr
                0x0000000000000000      0x10a
 .stack.descriptors.hdr
                0x0000000000000000        0xe /opt/microchip/xc8/v2.46/avr/bin/../lib/gcc/avr/5.4.0/../../../../avr/lib/avrxmega3/libc.a(exit.o)
 .stack.descriptors.hdr
                0x000000000000000e        0xe /opt/microchip/xc8/v2.46/avr/bin/../lib/gcc/avr/5.4.0/../../../../avr/lib/avrxmega3/libc.a(__sio_printf_doux.o)
 .stack.descriptors.hdr
                0x000000000000001c        0xe /opt/microchip/xc8/v2.46/avr/bin/../lib/gcc/avr/5.4.0/../../../../avr/lib/avrxmega3/libc.a(__fmt_d.o)
 .stack.descriptors.hdr
                0x000000000000002a        0xe /opt/microchip/xc8/v2.46/avr/bin/../lib/gcc/avr/5.4.0/../../../../avr/lib/avrxmega3/libc.a(__fmt_o.o)
 .stack.descriptors.hdr
                0x0000000000000038        0xe /opt/microchip/xc8/v2.46/avr/bin/../lib/gcc/avr/5.4.0/../../../../avr/lib/avrxmega3/libc.a(__fmt_s.o)
 .stack.descriptors.hdr
                0x0000000000000046        0xe /opt/microchip/xc8/v2.46/avr/bin/../lib/gcc/avr/5.4.0/../../../../avr/lib/avrxmega3/libc.a(__fmt_u.o)
 .stack.descriptors.hdr
                0x0000000000000054        0xe /opt/microchip/xc8/v2.46/avr/bin/../lib/gcc/avr/5.4.0/../../../../avr/lib/avrxmega3/libc.a(__fmt_x.o)
 .stack.descriptors.hdr
                0x0000000000000062        0xe /opt/microchip/xc8/v2.46/avr/bin/../lib/gcc/avr/5.4.0/../../../../avr/lib/avrxmega3/libc.a(__pop_int.o)
 .stack.descriptors.hdr
                0x0000000000000070        0xe /opt/microchip/xc8/v2.46/avr/bin/../lib/gcc/avr/5.4.0/../../../../avr/lib/avrxmega3/libc.a(__printf_core.o)
 .stack.descriptors.hdr
                0x000000000000007e        0xe /opt/microchip/xc8/v2.46/avr/bin/../lib/gcc/avr/5.4.0/../../../../avr/lib/avrxmega3/libc.a(fputc.o)
 .stack.descriptors.hdr
                0x000000000000008c        0xe /opt/microchip/xc8/v2.46/avr/bin/../lib/gcc/avr/5.4.0/../../../../avr/lib/avrxmega3/libc.a(stdout.o)
 .stack.descriptors.hdr
                0x000000000000009a        0xe /opt/microchip/xc8/v2.46/avr/bin/../lib/gcc/avr/5.4.0/../../../../avr/lib/avrxmega3/libc.a(strlen.o)
 .stack.descriptors.hdr
                0x00000000000000a8        0xe /opt/microchip/xc8/v2.46/avr/bin/../lib/gcc/avr/5.4.0/../../../../avr/lib/avrxmega3/libc.a(tolower.o)
 .stack.descriptors.hdr
                0x00000000000000b6        0xe /opt/microchip/xc8/v2.46/avr/bin/../lib/gcc/avr/5.4.0/../../../../avr/lib/avrxmega3/libc.a(toupper.o)
 .stack.descriptors.hdr
                0x00000000000000c4        0xe /opt/microchip/xc8/v2.46/avr/bin/../lib/gcc/avr/5.4.0/../../../../avr/lib/avrxmega3/libc.a(errno.o)
 .stack.descriptors.hdr
                0x00000000000000d2        0xe /opt/microchip/xc8/v2.46/avr/bin/../lib/gcc/avr/5.4.0/../../../../avr/lib/avrxmega3/libc.a(_Exit.o)
 .stack.descriptors.hdr
                0x00000000000000e0        0xe /opt/microchip/xc8/v2.46/avr/bin/../lib/gcc/avr/5.4.0/../../../../avr/lib/avrxmega3/libc.a(__int_vfprintf.o)
 .stack.descriptors.hdr
                0x00000000000000ee        0xe /opt/microchip/xc8/v2.46/avr/bin/../lib/gcc/avr/5.4.0/avrxmega3/libgcc.a(_udivmodsi4.o)
 .stack.descriptors.hdr
                0x00000000000000fc        0xe /opt/microchip/xc8/v2.46/avr/bin/../lib/gcc/avr/5.4.0/avrxmega3/libgcc.a(_exit.o)

.note.GNU-stack
                0x0000000000000000        0x0
 .note.GNU-stack
                0x0000000000000000        0x0 /opt/microchip/xc8/v2.46/avr/bin/../lib/gcc/avr/5.4.0/../../../../avr/lib/avrxmega3/libc.a(exit.o)
 .note.GNU-stack
                0x0000000000000000        0x0 /opt/microchip/xc8/v2.46/avr/bin/../lib/gcc/avr/5.4.0/../../../../avr/lib/avrxmega3/libc.a(__sio_printf_doux.o)
 .note.GNU-stack
                0x0000000000000000        0x0 /opt/microchip/xc8/v2.46/avr/bin/../lib/gcc/avr/5.4.0/../../../../avr/lib/avrxmega3/libc.a(__fmt_d.o)
 .note.GNU-stack
                0x0000000000000000        0x0 /opt/microchip/xc8/v2.46/avr/bin/../lib/gcc/avr/5.4.0/../../../../avr/lib/avrxmega3/libc.a(__fmt_o.o)
 .note.GNU-stack
                0x0000000000000000        0x0 /opt/microchip/xc8/v2.46/avr/bin/../lib/gcc/avr/5.4.0/../../../../avr/lib/avrxmega3/libc.a(__fmt_s.o)
 .note.GNU-stack
                0x0000000000000000        0x0 /opt/microchip/xc8/v2.46/avr/bin/../lib/gcc/avr/5.4.0/../../../../avr/lib/avrxmega3/libc.a(__fmt_u.o)
 .note.GNU-stack
                0x0000000000000000        0x0 /opt/microchip/xc8/v2.46/avr/bin/../lib/gcc/avr/5.4.0/../../../../avr/lib/avrxmega3/libc.a(__fmt_x.o)
 .note.GNU-stack
                0x0000000000000000        0x0 /opt/microchip/xc8/v2.46/avr/bin/../lib/gcc/avr/5.4.0/../../../../avr/lib/avrxmega3/libc.a(__pop_int.o)
 .note.GNU-stack
                0x0000000000000000        0x0 /opt/microchip/xc8/v2.46/avr/bin/../lib/gcc/avr/5.4.0/../../../../avr/lib/avrxmega3/libc.a(__printf_core.o)
 .note.GNU-stack
                0x0000000000000000        0x0 /opt/microchip/xc8/v2.46/avr/bin/../lib/gcc/avr/5.4.0/../../../../avr/lib/avrxmega3/libc.a(fputc.o)
 .note.GNU-stack
                0x0000000000000000        0x0 /opt/microchip/xc8/v2.46/avr/bin/../lib/gcc/avr/5.4.0/../../../../avr/lib/avrxmega3/libc.a(stdout.o)
 .note.GNU-stack
                0x0000000000000000        0x0 /opt/microchip/xc8/v2.46/avr/bin/../lib/gcc/avr/5.4.0/../../../../avr/lib/avrxmega3/libc.a(strlen.o)
 .note.GNU-stack
                0x0000000000000000        0x0 /opt/microchip/xc8/v2.46/avr/bin/../lib/gcc/avr/5.4.0/../../../../avr/lib/avrxmega3/libc.a(tolower.o)
 .note.GNU-stack
                0x0000000000000000        0x0 /opt/microchip/xc8/v2.46/avr/bin/../lib/gcc/avr/5.4.0/../../../../avr/lib/avrxmega3/libc.a(toupper.o)
 .note.GNU-stack
                0x0000000000000000        0x0 /opt/microchip/xc8/v2.46/avr/bin/../lib/gcc/avr/5.4.0/../../../../avr/lib/avrxmega3/libc.a(errno.o)
 .note.GNU-stack
                0x0000000000000000        0x0 /opt/microchip/xc8/v2.46/avr/bin/../lib/gcc/avr/5.4.0/../../../../avr/lib/avrxmega3/libc.a(_Exit.o)
 .note.GNU-stack
                0x0000000000000000        0x0 /opt/microchip/xc8/v2.46/avr/bin/../lib/gcc/avr/5.4.0/../../../../avr/lib/avrxmega3/libc.a(__int_vfprintf.o)

.note.gnu.build-id
 *(.note.gnu.build-id)

.debug
 *(.debug)

.line
 *(.line)

.debug_srcinfo
 *(.debug_srcinfo)

.debug_sfnames
 *(.debug_sfnames)

.debug_aranges  0x0000000000000000      0x348
 *(.debug_aranges)
 .debug_aranges
                0x0000000000000000       0xb0 build/default/production/mcc_generated_files/adc/src/adc0.o
 .debug_aranges
                0x00000000000000b0       0xc0 build/default/production/mcc_generated_files/system/src/pins.o
 .debug_aranges
                0x0000000000000170       0x20 build/default/production/mcc_generated_files/system/src/protected_io.o
 .debug_aranges
                0x0000000000000190       0x18 build/default/production/mcc_generated_files/system/src/config_bits.o
 .debug_aranges
                0x00000000000001a8       0x20 build/default/production/mcc_generated_files/system/src/system.o
 .debug_aranges
                0x00000000000001c8       0x20 build/default/production/mcc_generated_files/system/src/interrupt.o
 .debug_aranges
                0x00000000000001e8       0x20 build/default/production/mcc_generated_files/system/src/clock.o
 .debug_aranges
                0x0000000000000208       0xe0 build/default/production/mcc_generated_files/uart/src/usart2.o
 .debug_aranges
                0x00000000000002e8       0x20 build/default/production/mcc_generated_files/vref/src/vref.o
 .debug_aranges
                0x0000000000000308       0x20 build/default/production/main.o
 .debug_aranges
                0x0000000000000328       0x20 build/default/production/sensors_handling.o

.debug_pubnames
 *(.debug_pubnames)

.debug_info     0x0000000000000000     0x6a06
 *(.debug_info .gnu.linkonce.wi.*)
 .debug_info    0x0000000000000000     0x25a7 /home/mkhuthir/.mchp_packs/Microchip/ATmega_DFP/3.1.264/xc8/avr/lib/avrxmega3/crtatmega4808.o
 .debug_info    0x00000000000025a7      0xa7a build/default/production/mcc_generated_files/adc/src/adc0.o
 .debug_info    0x0000000000003021      0xb44 build/default/production/mcc_generated_files/system/src/pins.o
 .debug_info    0x0000000000003b65       0x7e build/default/production/mcc_generated_files/system/src/protected_io.o
 .debug_info    0x0000000000003be3      0x7f6 build/default/production/mcc_generated_files/system/src/config_bits.o
 .debug_info    0x00000000000043d9      0x32d build/default/production/mcc_generated_files/system/src/system.o
 .debug_info    0x0000000000004706      0x3e8 build/default/production/mcc_generated_files/system/src/interrupt.o
 .debug_info    0x0000000000004aee      0x682 build/default/production/mcc_generated_files/system/src/clock.o
 .debug_info    0x0000000000005170      0xf3d build/default/production/mcc_generated_files/uart/src/usart2.o
 .debug_info    0x00000000000060ad      0x2ff build/default/production/mcc_generated_files/vref/src/vref.o
 .debug_info    0x00000000000063ac      0x3ad build/default/production/main.o
 .debug_info    0x0000000000006759      0x2ad build/default/production/sensors_handling.o

.debug_abbrev   0x0000000000000000     0x2f51
 *(.debug_abbrev)
 .debug_abbrev  0x0000000000000000     0x23a4 /home/mkhuthir/.mchp_packs/Microchip/ATmega_DFP/3.1.264/xc8/avr/lib/avrxmega3/crtatmega4808.o
 .debug_abbrev  0x00000000000023a4      0x238 build/default/production/mcc_generated_files/adc/src/adc0.o
 .debug_abbrev  0x00000000000025dc      0x17a build/default/production/mcc_generated_files/system/src/pins.o
 .debug_abbrev  0x0000000000002756       0x14 build/default/production/mcc_generated_files/system/src/protected_io.o
 .debug_abbrev  0x000000000000276a       0x97 build/default/production/mcc_generated_files/system/src/config_bits.o
 .debug_abbrev  0x0000000000002801       0x58 build/default/production/mcc_generated_files/system/src/system.o
 .debug_abbrev  0x0000000000002859       0xfa build/default/production/mcc_generated_files/system/src/interrupt.o
 .debug_abbrev  0x0000000000002953      0x11d build/default/production/mcc_generated_files/system/src/clock.o
 .debug_abbrev  0x0000000000002a70      0x2d7 build/default/production/mcc_generated_files/uart/src/usart2.o
 .debug_abbrev  0x0000000000002d47       0x7a build/default/production/mcc_generated_files/vref/src/vref.o
 .debug_abbrev  0x0000000000002dc1      0x11d build/default/production/main.o
 .debug_abbrev  0x0000000000002ede       0x73 build/default/production/sensors_handling.o

.debug_line     0x0000000000000000     0x16c8
 *(.debug_line .debug_line.* .debug_line_end)
 .debug_line    0x0000000000000000      0x16f /home/mkhuthir/.mchp_packs/Microchip/ATmega_DFP/3.1.264/xc8/avr/lib/avrxmega3/crtatmega4808.o
 .debug_line    0x000000000000016f      0x36a build/default/production/mcc_generated_files/adc/src/adc0.o
 .debug_line    0x00000000000004d9      0x4c5 build/default/production/mcc_generated_files/system/src/pins.o
 .debug_line    0x000000000000099e       0x6d build/default/production/mcc_generated_files/system/src/protected_io.o
 .debug_line    0x0000000000000a0b       0xdf build/default/production/mcc_generated_files/system/src/config_bits.o
 .debug_line    0x0000000000000aea      0x166 build/default/production/mcc_generated_files/system/src/system.o
 .debug_line    0x0000000000000c50      0x172 build/default/production/mcc_generated_files/system/src/interrupt.o
 .debug_line    0x0000000000000dc2      0x15a build/default/production/mcc_generated_files/system/src/clock.o
 .debug_line    0x0000000000000f1c      0x4d5 build/default/production/mcc_generated_files/uart/src/usart2.o
 .debug_line    0x00000000000013f1       0xf8 build/default/production/mcc_generated_files/vref/src/vref.o
 .debug_line    0x00000000000014e9      0x135 build/default/production/main.o
 .debug_line    0x000000000000161e       0xaa build/default/production/sensors_handling.o

.debug_frame    0x0000000000000000      0x670
 *(.debug_frame)
 .debug_frame   0x0000000000000000      0x1d4 build/default/production/mcc_generated_files/adc/src/adc0.o
 .debug_frame   0x00000000000001d4      0x208 build/default/production/mcc_generated_files/system/src/pins.o
 .debug_frame   0x00000000000003dc       0x24 build/default/production/mcc_generated_files/system/src/system.o
 .debug_frame   0x0000000000000400       0x24 build/default/production/mcc_generated_files/system/src/interrupt.o
 .debug_frame   0x0000000000000424       0x24 build/default/production/mcc_generated_files/system/src/clock.o
 .debug_frame   0x0000000000000448      0x1ac build/default/production/mcc_generated_files/uart/src/usart2.o
 .debug_frame   0x00000000000005f4       0x24 build/default/production/mcc_generated_files/vref/src/vref.o
 .debug_frame   0x0000000000000618       0x34 build/default/production/main.o
 .debug_frame   0x000000000000064c       0x24 build/default/production/sensors_handling.o

.debug_str      0x0000000000000000     0x10e9
 *(.debug_str)
 .debug_str     0x0000000000000000      0xfdf /home/mkhuthir/.mchp_packs/Microchip/ATmega_DFP/3.1.264/xc8/avr/lib/avrxmega3/crtatmega4808.o
 .debug_str     0x0000000000000fdf        0x8 build/default/production/mcc_generated_files/adc/src/adc0.o
 .debug_str     0x0000000000000fe7       0x25 build/default/production/mcc_generated_files/system/src/pins.o
 .debug_str     0x000000000000100c        0x0 build/default/production/mcc_generated_files/system/src/config_bits.o
 .debug_str     0x000000000000100c       0x6c build/default/production/mcc_generated_files/system/src/system.o
 .debug_str     0x0000000000001078       0x13 build/default/production/mcc_generated_files/system/src/interrupt.o
 .debug_str     0x000000000000108b       0x13 build/default/production/mcc_generated_files/system/src/clock.o
 .debug_str     0x000000000000109e       0x10 build/default/production/mcc_generated_files/uart/src/usart2.o
 .debug_str     0x00000000000010ae        0x0 build/default/production/mcc_generated_files/vref/src/vref.o
 .debug_str     0x00000000000010ae       0x28 build/default/production/main.o
 .debug_str     0x00000000000010d6       0x13 build/default/production/sensors_handling.o

.debug_loc      0x0000000000000000      0x289
 *(.debug_loc)
 .debug_loc     0x0000000000000000       0xa2 build/default/production/mcc_generated_files/adc/src/adc0.o
 .debug_loc     0x00000000000000a2       0x2a build/default/production/mcc_generated_files/system/src/interrupt.o
 .debug_loc     0x00000000000000cc      0x11f build/default/production/mcc_generated_files/system/src/clock.o
 .debug_loc     0x00000000000001eb       0x9e build/default/production/mcc_generated_files/uart/src/usart2.o

.debug_macinfo
 *(.debug_macinfo)

.debug_weaknames
 *(.debug_weaknames)

.debug_funcnames
 *(.debug_funcnames)

.debug_typenames
 *(.debug_typenames)

.debug_varnames
 *(.debug_varnames)

.debug_pubtypes
 *(.debug_pubtypes)

.debug_ranges   0x0000000000000000      0x280
 *(.debug_ranges)
 .debug_ranges  0x0000000000000000       0xa0 build/default/production/mcc_generated_files/adc/src/adc0.o
 .debug_ranges  0x00000000000000a0       0xb0 build/default/production/mcc_generated_files/system/src/pins.o
 .debug_ranges  0x0000000000000150       0x10 build/default/production/mcc_generated_files/system/src/system.o
 .debug_ranges  0x0000000000000160       0x10 build/default/production/mcc_generated_files/system/src/interrupt.o
 .debug_ranges  0x0000000000000170       0x10 build/default/production/mcc_generated_files/system/src/clock.o
 .debug_ranges  0x0000000000000180       0xd0 build/default/production/mcc_generated_files/uart/src/usart2.o
 .debug_ranges  0x0000000000000250       0x10 build/default/production/mcc_generated_files/vref/src/vref.o
 .debug_ranges  0x0000000000000260       0x10 build/default/production/main.o
 .debug_ranges  0x0000000000000270       0x10 build/default/production/sensors_handling.o

.debug_macro
 *(.debug_macro)
OUTPUT(dist/default/production/ADC0_Light.X.production.elf elf32-avr)
LOAD linker stubs
LOAD data_init

.note.gnu.avr.deviceinfo
                0x0000000000000000       0x40
 .note.gnu.avr.deviceinfo
                0x0000000000000000       0x40 /home/mkhuthir/.mchp_packs/Microchip/ATmega_DFP/3.1.264/xc8/avr/lib/avrxmega3/crtatmega4808.o

.bss.ADC0_resrdy_cb
                0x0000000000802812        0x2
 .bss.ADC0_resrdy_cb
                0x0000000000802812        0x2 build/default/production/mcc_generated_files/adc/src/adc0.o
                0x0000000000802812                ADC0_resrdy_cb

.bss.ADC0_window_cb
                0x0000000000802814        0x2
 .bss.ADC0_window_cb
                0x0000000000802814        0x2 build/default/production/mcc_generated_files/adc/src/adc0.o
                0x0000000000802814                ADC0_window_cb

.bss.LED_B_InterruptHandler
                0x0000000000802816        0x2
 .bss.LED_B_InterruptHandler
                0x0000000000802816        0x2 build/default/production/mcc_generated_files/system/src/pins.o

.bss.LED_G_InterruptHandler
                0x0000000000802818        0x2
 .bss.LED_G_InterruptHandler
                0x0000000000802818        0x2 build/default/production/mcc_generated_files/system/src/pins.o

.bss.LED_Y_InterruptHandler
                0x000000000080281a        0x2
 .bss.LED_Y_InterruptHandler
                0x000000000080281a        0x2 build/default/production/mcc_generated_files/system/src/pins.o

.bss.LED_R_InterruptHandler
                0x000000000080281c        0x2
 .bss.LED_R_InterruptHandler
                0x000000000080281c        0x2 build/default/production/mcc_generated_files/system/src/pins.o

.bss.IO_PD5_InterruptHandler
                0x000000000080281e        0x2
 .bss.IO_PD5_InterruptHandler
                0x000000000080281e        0x2 build/default/production/mcc_generated_files/system/src/pins.o

.bss.TXD_InterruptHandler
                0x0000000000802820        0x2
 .bss.TXD_InterruptHandler
                0x0000000000802820        0x2 build/default/production/mcc_generated_files/system/src/pins.o

.bss.RXD_InterruptHandler
                0x0000000000802822        0x2
 .bss.RXD_InterruptHandler
                0x0000000000802822        0x2 build/default/production/mcc_generated_files/system/src/pins.o

.bss.USART2_ParityErrorHandler
                0x0000000000802824        0x2
 .bss.USART2_ParityErrorHandler
                0x0000000000802824        0x2 build/default/production/mcc_generated_files/uart/src/usart2.o
                0x0000000000802824                USART2_ParityErrorHandler

.bss.USART2_OverrunErrorHandler
                0x0000000000802826        0x2
 .bss.USART2_OverrunErrorHandler
                0x0000000000802826        0x2 build/default/production/mcc_generated_files/uart/src/usart2.o
                0x0000000000802826                USART2_OverrunErrorHandler

.bss.USART2_FramingErrorHandler
                0x0000000000802828        0x2
 .bss.USART2_FramingErrorHandler
                0x0000000000802828        0x2 build/default/production/mcc_generated_files/uart/src/usart2.o
                0x0000000000802828                USART2_FramingErrorHandler

.bss.usart2RxLastError
                0x000000000080282a        0x2
 .bss.usart2RxLastError
                0x000000000080282a        0x2 build/default/production/mcc_generated_files/uart/src/usart2.o

.bss.__stdout   0x000000000080282e        0x2
 .bss.__stdout  0x000000000080282e        0x2 /opt/microchip/xc8/v2.46/avr/bin/../lib/gcc/avr/5.4.0/../../../../avr/lib/avrxmega3/libc.a(stdout.o)

.text.vfpfcnvrt
                0x0000000000000102      0x3fc
 .text.vfpfcnvrt
                0x0000000000000102      0x3fc /opt/microchip/xc8/v2.46/avr/bin/../lib/gcc/avr/5.4.0/../../../../avr/lib/avrxmega3/libc.a(__printf_core.o)
                0x0000000000000102                vfpfcnvrt

.text.__fmt_x   0x00000000000004fe      0x1dc
 .text.__fmt_x  0x00000000000004fe      0x1dc /opt/microchip/xc8/v2.46/avr/bin/../lib/gcc/avr/5.4.0/../../../../avr/lib/avrxmega3/libc.a(__fmt_x.o)
                0x00000000000004fe                __fmt_x
                0x00000000000004fe                __fmt_x_needed

.text.PIN_MANAGER_Initialize
                0x00000000000006da      0x144
 .text.PIN_MANAGER_Initialize
                0x00000000000006da      0x144 build/default/production/mcc_generated_files/system/src/pins.o
                0x00000000000006da                PIN_MANAGER_Initialize

.text.__fmt_d   0x000000000000081e       0xe4
 .text.__fmt_d  0x000000000000081e       0xe4 /opt/microchip/xc8/v2.46/avr/bin/../lib/gcc/avr/5.4.0/../../../../avr/lib/avrxmega3/libc.a(__fmt_d.o)
                0x000000000000081e                __fmt_d_needed
                0x000000000000081e                __fmt_d

.text.__pop_int
                0x0000000000000902       0xd0
 .text.__pop_int
                0x0000000000000902       0xd0 /opt/microchip/xc8/v2.46/avr/bin/../lib/gcc/avr/5.4.0/../../../../avr/lib/avrxmega3/libc.a(__pop_int.o)
                0x0000000000000902                __pop_int
                0x0000000000000902                __pop_int_needed

.text.__cvt_u   0x00000000000009d2       0xca
 .text.__cvt_u  0x00000000000009d2       0xca /opt/microchip/xc8/v2.46/avr/bin/../lib/gcc/avr/5.4.0/../../../../avr/lib/avrxmega3/libc.a(__fmt_u.o)
                0x00000000000009d2                __cvt_u

.text.__fmt_o   0x0000000000000a9c       0xb2
 .text.__fmt_o  0x0000000000000a9c       0xb2 /opt/microchip/xc8/v2.46/avr/bin/../lib/gcc/avr/5.4.0/../../../../avr/lib/avrxmega3/libc.a(__fmt_o.o)
                0x0000000000000a9c                __fmt_o_needed
                0x0000000000000a9c                __fmt_o

.text.fputc     0x0000000000000b4e       0x98
 .text.fputc    0x0000000000000b4e       0x98 /opt/microchip/xc8/v2.46/avr/bin/../lib/gcc/avr/5.4.0/../../../../avr/lib/avrxmega3/libc.a(fputc.o)
                0x0000000000000b4e                putc
                0x0000000000000b4e                fputc

.text.__vector_20
                0x0000000000000be6       0x8e
 .text.__vector_20
                0x0000000000000be6       0x8e build/default/production/mcc_generated_files/system/src/pins.o
                0x0000000000000be6                __vector_20

.text.__fmt_u   0x0000000000000c74       0x8e
 .text.__fmt_u  0x0000000000000c74       0x8e /opt/microchip/xc8/v2.46/avr/bin/../lib/gcc/avr/5.4.0/../../../../avr/lib/avrxmega3/libc.a(__fmt_u.o)
                0x0000000000000c74                __fmt_u
                0x0000000000000c74                __fmt_u_needed

.text.__printf_core
                0x0000000000000d02       0x78
 .text.__printf_core
                0x0000000000000d02       0x78 /opt/microchip/xc8/v2.46/avr/bin/../lib/gcc/avr/5.4.0/../../../../avr/lib/avrxmega3/libc.a(__printf_core.o)
                0x0000000000000d02                __printf_core

.text.__pad     0x0000000000000d7a       0x72
 .text.__pad    0x0000000000000d7a       0x72 /opt/microchip/xc8/v2.46/avr/bin/../lib/gcc/avr/5.4.0/../../../../avr/lib/avrxmega3/libc.a(__printf_core.o)
                0x0000000000000d7a                __pad

.text.__vector_29
                0x0000000000000dec       0x64
 .text.__vector_29
                0x0000000000000dec       0x64 build/default/production/mcc_generated_files/system/src/pins.o
                0x0000000000000dec                __vector_29

.text.USART2_Initialize
                0x0000000000000e50       0x5c
 .text.USART2_Initialize
                0x0000000000000e50       0x5c build/default/production/mcc_generated_files/uart/src/usart2.o
                0x0000000000000e50                USART2_Initialize

.text.read_prec_or_width
                0x0000000000000eac       0x5c
 .text.read_prec_or_width
                0x0000000000000eac       0x5c /opt/microchip/xc8/v2.46/avr/bin/../lib/gcc/avr/5.4.0/../../../../avr/lib/avrxmega3/libc.a(__printf_core.o)

.text.__vector_23
                0x0000000000000f08       0x58
 .text.__vector_23
                0x0000000000000f08       0x58 build/default/production/mcc_generated_files/adc/src/adc0.o
                0x0000000000000f08                __vector_23

.text.__vector_22
                0x0000000000000f60       0x58
 .text.__vector_22
                0x0000000000000f60       0x58 build/default/production/mcc_generated_files/adc/src/adc0.o
                0x0000000000000f60                __vector_22

.text.CLOCK_Initialize
                0x0000000000000fb8       0x56
 .text.CLOCK_Initialize
                0x0000000000000fb8       0x56 build/default/production/mcc_generated_files/system/src/clock.o
                0x0000000000000fb8                CLOCK_Initialize

.text.__fmt_s   0x000000000000100e       0x54
 .text.__fmt_s  0x000000000000100e       0x54 /opt/microchip/xc8/v2.46/avr/bin/../lib/gcc/avr/5.4.0/../../../../avr/lib/avrxmega3/libc.a(__fmt_s.o)
                0x000000000000100e                __fmt_s_needed
                0x000000000000100e                __fmt_s
                0x000000000000100e                __fmt_0_needed

.text.libgcc.div
                0x0000000000001062       0x44
 .text.libgcc.div
                0x0000000000001062       0x44 /opt/microchip/xc8/v2.46/avr/bin/../lib/gcc/avr/5.4.0/avrxmega3/libgcc.a(_udivmodsi4.o)
                0x0000000000001062                __udivmodsi4

.text.__fmt_state
                0x00000000000010a6       0x40
 .text.__fmt_state
                0x00000000000010a6       0x40 /opt/microchip/xc8/v2.46/avr/bin/../lib/gcc/avr/5.4.0/../../../../avr/lib/avrxmega3/libc.a(__printf_core.o)
                0x00000000000010a6                __fmt_state

.text.main      0x00000000000010e6       0x3e
 .text.main     0x00000000000010e6       0x3e build/default/production/main.o
                0x00000000000010e6                main

.text.__out     0x0000000000001124       0x3a
 .text.__out    0x0000000000001124       0x3a /opt/microchip/xc8/v2.46/avr/bin/../lib/gcc/avr/5.4.0/../../../../avr/lib/avrxmega3/libc.a(__printf_core.o)
                0x0000000000001124                __out

.text.libgcc.prologue
                0x000000000000115e       0x32
 .text.libgcc.prologue
                0x000000000000115e       0x32 /opt/microchip/xc8/v2.46/avr/bin/../lib/gcc/avr/5.4.0/avrxmega3/libgcc.a(_prologue.o)
                0x000000000000115e                __prologue_saves__

.text.__wrap_printf
                0x0000000000001190       0x30
 .text.__wrap_printf
                0x0000000000001190       0x30 /opt/microchip/xc8/v2.46/avr/bin/../lib/gcc/avr/5.4.0/../../../../avr/lib/avrxmega3/libc.a(__sio_printf_doux.o)
                0x0000000000001190                _printf_cdopuxX

.text.__vfprintf
                0x00000000000011c0       0x30
 .text.__vfprintf
                0x00000000000011c0       0x30 /opt/microchip/xc8/v2.46/avr/bin/../lib/gcc/avr/5.4.0/../../../../avr/lib/avrxmega3/libc.a(__int_vfprintf.o)
                0x00000000000011c0                __vfprintf

.text.libgcc.prologue
                0x00000000000011f0       0x30
 .text.libgcc.prologue
                0x00000000000011f0       0x30 /opt/microchip/xc8/v2.46/avr/bin/../lib/gcc/avr/5.4.0/avrxmega3/libgcc.a(_epilogue.o)
                0x00000000000011f0                __epilogue_restores__

.text.ADC0_Initialize
                0x0000000000001220       0x2c
 .text.ADC0_Initialize
                0x0000000000001220       0x2c build/default/production/mcc_generated_files/adc/src/adc0.o
                0x0000000000001220                ADC0_Initialize

.text.ADC0_GetConversion
                0x000000000000124c       0x20
 .text.ADC0_GetConversion
                0x000000000000124c       0x20 build/default/production/mcc_generated_files/adc/src/adc0.o
                0x000000000000124c                ADC0_GetConversion

.text.strlen    0x000000000000126c       0x1c
 .text.strlen   0x000000000000126c       0x1c /opt/microchip/xc8/v2.46/avr/bin/../lib/gcc/avr/5.4.0/../../../../avr/lib/avrxmega3/libc.a(strlen.o)
                0x000000000000126c                strlen

.text.SYSTEM_Initialize
                0x0000000000001288       0x1a
 .text.SYSTEM_Initialize
                0x0000000000001288       0x1a build/default/production/mcc_generated_files/system/src/system.o
                0x0000000000001288                SYSTEM_Initialize

.text.CPUINT_Initialize
                0x00000000000012a2       0x18
 .text.CPUINT_Initialize
                0x00000000000012a2       0x18 build/default/production/mcc_generated_files/system/src/interrupt.o
                0x00000000000012a2                CPUINT_Initialize

.text.USART2_printCHAR
                0x00000000000012ba       0x18
 .text.USART2_printCHAR
                0x00000000000012ba       0x18 build/default/production/mcc_generated_files/uart/src/usart2.o
                0x00000000000012ba                USART2_printCHAR

.text.exit      0x00000000000012d2       0x16
 .text.exit     0x00000000000012d2       0x16 /opt/microchip/xc8/v2.46/avr/bin/../lib/gcc/avr/5.4.0/../../../../avr/lib/avrxmega3/libc.a(exit.o)
                0x00000000000012d2                exit

.rodata.state_table
                0x00000000008052e8       0x16 load address 0x00000000000012e8
 .rodata.state_table
                0x00000000008052e8       0x16 /opt/microchip/xc8/v2.46/avr/bin/../lib/gcc/avr/5.4.0/../../../../avr/lib/avrxmega3/libc.a(__printf_core.o)

.rodata         0x00000000008052fe       0x13 load address 0x00000000000012fe
 .rodata        0x00000000008052fe       0x13 build/default/production/main.o

.text.toupper   0x0000000000001312       0x12
 .text.toupper  0x0000000000001312       0x12 /opt/microchip/xc8/v2.46/avr/bin/../lib/gcc/avr/5.4.0/../../../../avr/lib/avrxmega3/libc.a(toupper.o)
                0x0000000000001312                toupper

.text.tolower   0x0000000000001324       0x10
 .text.tolower  0x0000000000001324       0x10 /opt/microchip/xc8/v2.46/avr/bin/../lib/gcc/avr/5.4.0/../../../../avr/lib/avrxmega3/libc.a(tolower.o)
                0x0000000000001324                tolower

.text.USART2_IsTxReady
                0x0000000000001334        0xc
 .text.USART2_IsTxReady
                0x0000000000001334        0xc build/default/production/mcc_generated_files/uart/src/usart2.o
                0x0000000000001334                USART2_IsTxReady

.text.VREF_Initialize
                0x0000000000001340        0xc
 .text.VREF_Initialize
                0x0000000000001340        0xc build/default/production/mcc_generated_files/vref/src/vref.o
                0x0000000000001340                VREF_Initialize

.text.__vector_6
                0x000000000000134c        0xa
 .text.__vector_6
                0x000000000000134c        0xa build/default/production/mcc_generated_files/system/src/pins.o
                0x000000000000134c                __vector_6

.text.__vector_34
                0x0000000000001356        0xa
 .text.__vector_34
                0x0000000000001356        0xa build/default/production/mcc_generated_files/system/src/pins.o
                0x0000000000001356                __vector_34

.text.__vector_24
                0x0000000000001360        0xa
 .text.__vector_24
                0x0000000000001360        0xa build/default/production/mcc_generated_files/system/src/pins.o
                0x0000000000001360                __vector_24

.text.__vector_35
                0x000000000000136a        0xa
 .text.__vector_35
                0x000000000000136a        0xa build/default/production/mcc_generated_files/system/src/pins.o
                0x000000000000136a                __vector_35

.text.ADC0_IsConversionDone
                0x0000000000001374        0x8
 .text.ADC0_IsConversionDone
                0x0000000000001374        0x8 build/default/production/mcc_generated_files/adc/src/adc0.o
                0x0000000000001374                ADC0_IsConversionDone

.text.protected_write_io
                0x000000000000137c        0x8
 .text.protected_write_io
                0x000000000000137c        0x8 build/default/production/mcc_generated_files/system/src/protected_io.o
                0x000000000000137c                protected_write_io

.text.SENSORS_getLightValue
                0x0000000000001384        0x8
 .text.SENSORS_getLightValue
                0x0000000000001384        0x8 build/default/production/sensors_handling.o
                0x0000000000001384                SENSORS_getLightValue

.rodata.nuls.2781
                0x000000000080538c        0x7 load address 0x000000000000138c
 .rodata.nuls.2781
                0x000000000080538c        0x7 /opt/microchip/xc8/v2.46/avr/bin/../lib/gcc/avr/5.4.0/../../../../avr/lib/avrxmega3/libc.a(__fmt_s.o)

.rodata.nilstr.2962
                0x0000000000805393        0x6 load address 0x0000000000001393
 .rodata.nilstr.2962
                0x0000000000805393        0x6 /opt/microchip/xc8/v2.46/avr/bin/../lib/gcc/avr/5.4.0/../../../../avr/lib/avrxmega3/libc.a(__printf_core.o)

.text           0x000000000000139a        0x4
 .text          0x000000000000139a        0x4 /home/mkhuthir/.mchp_packs/Microchip/ATmega_DFP/3.1.264/xc8/avr/lib/avrxmega3/crtatmega4808.o
                0x000000000000139a                __vector_28
                0x000000000000139a                __vector_1
                0x000000000000139a                __vector_32
                0x000000000000139a                __vector_12
                0x000000000000139a                __bad_interrupt
                0x000000000000139a                __vector_31
                0x000000000000139a                __vector_3
                0x000000000000139a                __vector_30
                0x000000000000139a                __vector_25
                0x000000000000139a                __vector_11
                0x000000000000139a                __vector_13
                0x000000000000139a                __vector_17
                0x000000000000139a                __vector_19
                0x000000000000139a                __vector_7
                0x000000000000139a                __vector_27
                0x000000000000139a                __vector_5
                0x000000000000139a                __vector_33
                0x000000000000139a                __vector_4
                0x000000000000139a                __vector_9
                0x000000000000139a                __vector_2
                0x000000000000139a                __vector_21
                0x000000000000139a                __vector_15
                0x000000000000139a                __vector_8
                0x000000000000139a                __vector_26
                0x000000000000139a                __vector_14
                0x000000000000139a                __vector_10
                0x000000000000139a                __vector_16
                0x000000000000139a                __vector_18

.text._Exit     0x000000000000139e        0x4
 .text._Exit    0x000000000000139e        0x4 /opt/microchip/xc8/v2.46/avr/bin/../lib/gcc/avr/5.4.0/../../../../avr/lib/avrxmega3/libc.a(_Exit.o)
                0x000000000000139e                _Exit

.text.RXD_DefaultInterruptHandler
                0x00000000000013a2        0x2
 .text.RXD_DefaultInterruptHandler
                0x00000000000013a2        0x2 build/default/production/mcc_generated_files/system/src/pins.o
                0x00000000000013a2                RXD_DefaultInterruptHandler

.text.TXD_DefaultInterruptHandler
                0x00000000000013a4        0x2
 .text.TXD_DefaultInterruptHandler
                0x00000000000013a4        0x2 build/default/production/mcc_generated_files/system/src/pins.o
                0x00000000000013a4                TXD_DefaultInterruptHandler

.text.IO_PD5_DefaultInterruptHandler
                0x00000000000013a6        0x2
 .text.IO_PD5_DefaultInterruptHandler
                0x00000000000013a6        0x2 build/default/production/mcc_generated_files/system/src/pins.o
                0x00000000000013a6                IO_PD5_DefaultInterruptHandler

.text.LED_R_DefaultInterruptHandler
                0x00000000000013a8        0x2
 .text.LED_R_DefaultInterruptHandler
                0x00000000000013a8        0x2 build/default/production/mcc_generated_files/system/src/pins.o
                0x00000000000013a8                LED_R_DefaultInterruptHandler

.text.LED_Y_DefaultInterruptHandler
                0x00000000000013aa        0x2
 .text.LED_Y_DefaultInterruptHandler
                0x00000000000013aa        0x2 build/default/production/mcc_generated_files/system/src/pins.o
                0x00000000000013aa                LED_Y_DefaultInterruptHandler

.text.LED_G_DefaultInterruptHandler
                0x00000000000013ac        0x2
 .text.LED_G_DefaultInterruptHandler
                0x00000000000013ac        0x2 build/default/production/mcc_generated_files/system/src/pins.o
                0x00000000000013ac                LED_G_DefaultInterruptHandler

.text.LED_B_DefaultInterruptHandler
                0x00000000000013ae        0x2
 .text.LED_B_DefaultInterruptHandler
                0x00000000000013ae        0x2 build/default/production/mcc_generated_files/system/src/pins.o
                0x00000000000013ae                LED_B_DefaultInterruptHandler

.text.USART2_DefaultFramingErrorCallback
                0x00000000000013b0        0x2
 .text.USART2_DefaultFramingErrorCallback
                0x00000000000013b0        0x2 build/default/production/mcc_generated_files/uart/src/usart2.o

.text.USART2_DefaultOverrunErrorCallback
                0x00000000000013b2        0x2
 .text.USART2_DefaultOverrunErrorCallback
                0x00000000000013b2        0x2 build/default/production/mcc_generated_files/uart/src/usart2.o

.text.USART2_DefaultParityErrorCallback
                0x00000000000013b4        0x2
 .text.USART2_DefaultParityErrorCallback
                0x00000000000013b4        0x2 build/default/production/mcc_generated_files/uart/src/usart2.o

.text.__dummy_fini
                0x00000000000013b6        0x2
 .text.__dummy_fini
                0x00000000000013b6        0x2 /opt/microchip/xc8/v2.46/avr/bin/../lib/gcc/avr/5.4.0/../../../../avr/lib/avrxmega3/libc.a(exit.o)
                0x00000000000013b6                _fini

.text.__dummy_funcs_on_exit
                0x00000000000013b8        0x2
 .text.__dummy_funcs_on_exit
                0x00000000000013b8        0x2 /opt/microchip/xc8/v2.46/avr/bin/../lib/gcc/avr/5.4.0/../../../../avr/lib/avrxmega3/libc.a(exit.o)
                0x00000000000013b8                __funcs_on_exit

.text.__dummy_simulator_exit
                0x00000000000013ba        0x2
 .text.__dummy_simulator_exit
                0x00000000000013ba        0x2 /opt/microchip/xc8/v2.46/avr/bin/../lib/gcc/avr/5.4.0/../../../../avr/lib/avrxmega3/libc.a(exit.o)
                0x00000000000013ba                __simulator_exit

.data.USART2_stream
                0x0000000000802802       0x10 load address 0x00000000000013bc
 .data.USART2_stream
                0x0000000000802802       0x10 build/default/production/mcc_generated_files/uart/src/usart2.o
                0x0000000000802802                USART2_stream

.data._stdout   0x000000000080282c        0x2 load address 0x00000000000013cc
 .data._stdout  0x000000000080282c        0x2 /opt/microchip/xc8/v2.46/avr/bin/../lib/gcc/avr/5.4.0/../../../../avr/lib/avrxmega3/libc.a(stdout.o)
                0x000000000080282c                _stdout
