                                      1 ;--------------------------------------------------------
                                      2 ; File Created by SDCC : free open source ANSI-C Compiler
                                      3 ; Version 4.1.0 #12072 (Linux)
                                      4 ;--------------------------------------------------------
                                      5 	.module lib_lcd1602
                                      6 	.optsdcc -mmcs51 --model-small
                                      7 	
                                      8 ;--------------------------------------------------------
                                      9 ; Public variables in this module
                                     10 ;--------------------------------------------------------
                                     11 	.globl _lcd_pow
                                     12 	.globl _lcd_delay
                                     13 	.globl _TF2
                                     14 	.globl _EXF2
                                     15 	.globl _RCLK
                                     16 	.globl _TCLK
                                     17 	.globl _EXEN2
                                     18 	.globl _TR2
                                     19 	.globl _C_T2
                                     20 	.globl _CP_RL2
                                     21 	.globl _T2CON_7
                                     22 	.globl _T2CON_6
                                     23 	.globl _T2CON_5
                                     24 	.globl _T2CON_4
                                     25 	.globl _T2CON_3
                                     26 	.globl _T2CON_2
                                     27 	.globl _T2CON_1
                                     28 	.globl _T2CON_0
                                     29 	.globl _PT2
                                     30 	.globl _ET2
                                     31 	.globl _CY
                                     32 	.globl _AC
                                     33 	.globl _F0
                                     34 	.globl _RS1
                                     35 	.globl _RS0
                                     36 	.globl _OV
                                     37 	.globl _F1
                                     38 	.globl _P
                                     39 	.globl _PS
                                     40 	.globl _PT1
                                     41 	.globl _PX1
                                     42 	.globl _PT0
                                     43 	.globl _PX0
                                     44 	.globl _RD
                                     45 	.globl _WR
                                     46 	.globl _T1
                                     47 	.globl _T0
                                     48 	.globl _INT1
                                     49 	.globl _INT0
                                     50 	.globl _TXD
                                     51 	.globl _RXD
                                     52 	.globl _P3_7
                                     53 	.globl _P3_6
                                     54 	.globl _P3_5
                                     55 	.globl _P3_4
                                     56 	.globl _P3_3
                                     57 	.globl _P3_2
                                     58 	.globl _P3_1
                                     59 	.globl _P3_0
                                     60 	.globl _EA
                                     61 	.globl _ES
                                     62 	.globl _ET1
                                     63 	.globl _EX1
                                     64 	.globl _ET0
                                     65 	.globl _EX0
                                     66 	.globl _P2_7
                                     67 	.globl _P2_6
                                     68 	.globl _P2_5
                                     69 	.globl _P2_4
                                     70 	.globl _P2_3
                                     71 	.globl _P2_2
                                     72 	.globl _P2_1
                                     73 	.globl _P2_0
                                     74 	.globl _SM0
                                     75 	.globl _SM1
                                     76 	.globl _SM2
                                     77 	.globl _REN
                                     78 	.globl _TB8
                                     79 	.globl _RB8
                                     80 	.globl _TI
                                     81 	.globl _RI
                                     82 	.globl _P1_7
                                     83 	.globl _P1_6
                                     84 	.globl _P1_5
                                     85 	.globl _P1_4
                                     86 	.globl _P1_3
                                     87 	.globl _P1_2
                                     88 	.globl _P1_1
                                     89 	.globl _P1_0
                                     90 	.globl _TF1
                                     91 	.globl _TR1
                                     92 	.globl _TF0
                                     93 	.globl _TR0
                                     94 	.globl _IE1
                                     95 	.globl _IT1
                                     96 	.globl _IE0
                                     97 	.globl _IT0
                                     98 	.globl _P0_7
                                     99 	.globl _P0_6
                                    100 	.globl _P0_5
                                    101 	.globl _P0_4
                                    102 	.globl _P0_3
                                    103 	.globl _P0_2
                                    104 	.globl _P0_1
                                    105 	.globl _P0_0
                                    106 	.globl _TH2
                                    107 	.globl _TL2
                                    108 	.globl _RCAP2H
                                    109 	.globl _RCAP2L
                                    110 	.globl _T2CON
                                    111 	.globl _B
                                    112 	.globl _ACC
                                    113 	.globl _PSW
                                    114 	.globl _IP
                                    115 	.globl _P3
                                    116 	.globl _IE
                                    117 	.globl _P2
                                    118 	.globl _SBUF
                                    119 	.globl _SCON
                                    120 	.globl _P1
                                    121 	.globl _TH1
                                    122 	.globl _TH0
                                    123 	.globl _TL1
                                    124 	.globl _TL0
                                    125 	.globl _TMOD
                                    126 	.globl _TCON
                                    127 	.globl _PCON
                                    128 	.globl _DPH
                                    129 	.globl _DPL
                                    130 	.globl _SP
                                    131 	.globl _P0
                                    132 	.globl _lcd_show_bin_num_PARM_4
                                    133 	.globl _lcd_show_bin_num_PARM_3
                                    134 	.globl _lcd_show_bin_num_PARM_2
                                    135 	.globl _lcd_show_hex_num_PARM_4
                                    136 	.globl _lcd_show_hex_num_PARM_3
                                    137 	.globl _lcd_show_hex_num_PARM_2
                                    138 	.globl _lcd_show_dec_num_PARM_4
                                    139 	.globl _lcd_show_dec_num_PARM_3
                                    140 	.globl _lcd_show_dec_num_PARM_2
                                    141 	.globl _lcd_show_int_num_PARM_4
                                    142 	.globl _lcd_show_int_num_PARM_3
                                    143 	.globl _lcd_show_int_num_PARM_2
                                    144 	.globl _lcd_show_string_PARM_3
                                    145 	.globl _lcd_show_string_PARM_2
                                    146 	.globl _lcd_show_char_PARM_3
                                    147 	.globl _lcd_show_char_PARM_2
                                    148 	.globl _lcd_set_ac_PARM_2
                                    149 	.globl _lcd_pow_PARM_2
                                    150 	.globl _lcd_write_command
                                    151 	.globl _lcd_write_data
                                    152 	.globl _lcd_1602_init
                                    153 	.globl _lcd_set_ac
                                    154 	.globl _lcd_show_char
                                    155 	.globl _lcd_show_string
                                    156 	.globl _lcd_show_int_num
                                    157 	.globl _lcd_show_dec_num
                                    158 	.globl _lcd_show_hex_num
                                    159 	.globl _lcd_show_bin_num
                                    160 ;--------------------------------------------------------
                                    161 ; special function registers
                                    162 ;--------------------------------------------------------
                                    163 	.area RSEG    (ABS,DATA)
      000000                        164 	.org 0x0000
                           000080   165 _P0	=	0x0080
                           000081   166 _SP	=	0x0081
                           000082   167 _DPL	=	0x0082
                           000083   168 _DPH	=	0x0083
                           000087   169 _PCON	=	0x0087
                           000088   170 _TCON	=	0x0088
                           000089   171 _TMOD	=	0x0089
                           00008A   172 _TL0	=	0x008a
                           00008B   173 _TL1	=	0x008b
                           00008C   174 _TH0	=	0x008c
                           00008D   175 _TH1	=	0x008d
                           000090   176 _P1	=	0x0090
                           000098   177 _SCON	=	0x0098
                           000099   178 _SBUF	=	0x0099
                           0000A0   179 _P2	=	0x00a0
                           0000A8   180 _IE	=	0x00a8
                           0000B0   181 _P3	=	0x00b0
                           0000B8   182 _IP	=	0x00b8
                           0000D0   183 _PSW	=	0x00d0
                           0000E0   184 _ACC	=	0x00e0
                           0000F0   185 _B	=	0x00f0
                           0000C8   186 _T2CON	=	0x00c8
                           0000CA   187 _RCAP2L	=	0x00ca
                           0000CB   188 _RCAP2H	=	0x00cb
                           0000CC   189 _TL2	=	0x00cc
                           0000CD   190 _TH2	=	0x00cd
                                    191 ;--------------------------------------------------------
                                    192 ; special function bits
                                    193 ;--------------------------------------------------------
                                    194 	.area RSEG    (ABS,DATA)
      000000                        195 	.org 0x0000
                           000080   196 _P0_0	=	0x0080
                           000081   197 _P0_1	=	0x0081
                           000082   198 _P0_2	=	0x0082
                           000083   199 _P0_3	=	0x0083
                           000084   200 _P0_4	=	0x0084
                           000085   201 _P0_5	=	0x0085
                           000086   202 _P0_6	=	0x0086
                           000087   203 _P0_7	=	0x0087
                           000088   204 _IT0	=	0x0088
                           000089   205 _IE0	=	0x0089
                           00008A   206 _IT1	=	0x008a
                           00008B   207 _IE1	=	0x008b
                           00008C   208 _TR0	=	0x008c
                           00008D   209 _TF0	=	0x008d
                           00008E   210 _TR1	=	0x008e
                           00008F   211 _TF1	=	0x008f
                           000090   212 _P1_0	=	0x0090
                           000091   213 _P1_1	=	0x0091
                           000092   214 _P1_2	=	0x0092
                           000093   215 _P1_3	=	0x0093
                           000094   216 _P1_4	=	0x0094
                           000095   217 _P1_5	=	0x0095
                           000096   218 _P1_6	=	0x0096
                           000097   219 _P1_7	=	0x0097
                           000098   220 _RI	=	0x0098
                           000099   221 _TI	=	0x0099
                           00009A   222 _RB8	=	0x009a
                           00009B   223 _TB8	=	0x009b
                           00009C   224 _REN	=	0x009c
                           00009D   225 _SM2	=	0x009d
                           00009E   226 _SM1	=	0x009e
                           00009F   227 _SM0	=	0x009f
                           0000A0   228 _P2_0	=	0x00a0
                           0000A1   229 _P2_1	=	0x00a1
                           0000A2   230 _P2_2	=	0x00a2
                           0000A3   231 _P2_3	=	0x00a3
                           0000A4   232 _P2_4	=	0x00a4
                           0000A5   233 _P2_5	=	0x00a5
                           0000A6   234 _P2_6	=	0x00a6
                           0000A7   235 _P2_7	=	0x00a7
                           0000A8   236 _EX0	=	0x00a8
                           0000A9   237 _ET0	=	0x00a9
                           0000AA   238 _EX1	=	0x00aa
                           0000AB   239 _ET1	=	0x00ab
                           0000AC   240 _ES	=	0x00ac
                           0000AF   241 _EA	=	0x00af
                           0000B0   242 _P3_0	=	0x00b0
                           0000B1   243 _P3_1	=	0x00b1
                           0000B2   244 _P3_2	=	0x00b2
                           0000B3   245 _P3_3	=	0x00b3
                           0000B4   246 _P3_4	=	0x00b4
                           0000B5   247 _P3_5	=	0x00b5
                           0000B6   248 _P3_6	=	0x00b6
                           0000B7   249 _P3_7	=	0x00b7
                           0000B0   250 _RXD	=	0x00b0
                           0000B1   251 _TXD	=	0x00b1
                           0000B2   252 _INT0	=	0x00b2
                           0000B3   253 _INT1	=	0x00b3
                           0000B4   254 _T0	=	0x00b4
                           0000B5   255 _T1	=	0x00b5
                           0000B6   256 _WR	=	0x00b6
                           0000B7   257 _RD	=	0x00b7
                           0000B8   258 _PX0	=	0x00b8
                           0000B9   259 _PT0	=	0x00b9
                           0000BA   260 _PX1	=	0x00ba
                           0000BB   261 _PT1	=	0x00bb
                           0000BC   262 _PS	=	0x00bc
                           0000D0   263 _P	=	0x00d0
                           0000D1   264 _F1	=	0x00d1
                           0000D2   265 _OV	=	0x00d2
                           0000D3   266 _RS0	=	0x00d3
                           0000D4   267 _RS1	=	0x00d4
                           0000D5   268 _F0	=	0x00d5
                           0000D6   269 _AC	=	0x00d6
                           0000D7   270 _CY	=	0x00d7
                           0000AD   271 _ET2	=	0x00ad
                           0000BD   272 _PT2	=	0x00bd
                           0000C8   273 _T2CON_0	=	0x00c8
                           0000C9   274 _T2CON_1	=	0x00c9
                           0000CA   275 _T2CON_2	=	0x00ca
                           0000CB   276 _T2CON_3	=	0x00cb
                           0000CC   277 _T2CON_4	=	0x00cc
                           0000CD   278 _T2CON_5	=	0x00cd
                           0000CE   279 _T2CON_6	=	0x00ce
                           0000CF   280 _T2CON_7	=	0x00cf
                           0000C8   281 _CP_RL2	=	0x00c8
                           0000C9   282 _C_T2	=	0x00c9
                           0000CA   283 _TR2	=	0x00ca
                           0000CB   284 _EXEN2	=	0x00cb
                           0000CC   285 _TCLK	=	0x00cc
                           0000CD   286 _RCLK	=	0x00cd
                           0000CE   287 _EXF2	=	0x00ce
                           0000CF   288 _TF2	=	0x00cf
                                    289 ;--------------------------------------------------------
                                    290 ; overlayable register banks
                                    291 ;--------------------------------------------------------
                                    292 	.area REG_BANK_0	(REL,OVR,DATA)
      000000                        293 	.ds 8
                                    294 ;--------------------------------------------------------
                                    295 ; internal ram data
                                    296 ;--------------------------------------------------------
                                    297 	.area DSEG    (DATA)
      000000                        298 _lcd_pow_PARM_2:
      000000                        299 	.ds 2
      000002                        300 _lcd_set_ac_PARM_2:
      000002                        301 	.ds 2
      000004                        302 _lcd_show_char_PARM_2:
      000004                        303 	.ds 2
      000006                        304 _lcd_show_char_PARM_3:
      000006                        305 	.ds 1
      000007                        306 _lcd_show_string_PARM_2:
      000007                        307 	.ds 2
      000009                        308 _lcd_show_string_PARM_3:
      000009                        309 	.ds 3
      00000C                        310 _lcd_show_int_num_PARM_2:
      00000C                        311 	.ds 2
      00000E                        312 _lcd_show_int_num_PARM_3:
      00000E                        313 	.ds 2
      000010                        314 _lcd_show_int_num_PARM_4:
      000010                        315 	.ds 2
      000012                        316 _lcd_show_dec_num_PARM_2:
      000012                        317 	.ds 2
      000014                        318 _lcd_show_dec_num_PARM_3:
      000014                        319 	.ds 2
      000016                        320 _lcd_show_dec_num_PARM_4:
      000016                        321 	.ds 2
      000018                        322 _lcd_show_hex_num_PARM_2:
      000018                        323 	.ds 2
      00001A                        324 _lcd_show_hex_num_PARM_3:
      00001A                        325 	.ds 1
      00001B                        326 _lcd_show_hex_num_PARM_4:
      00001B                        327 	.ds 2
      00001D                        328 _lcd_show_bin_num_PARM_2:
      00001D                        329 	.ds 2
      00001F                        330 _lcd_show_bin_num_PARM_3:
      00001F                        331 	.ds 2
      000021                        332 _lcd_show_bin_num_PARM_4:
      000021                        333 	.ds 2
                                    334 ;--------------------------------------------------------
                                    335 ; overlayable items in internal ram 
                                    336 ;--------------------------------------------------------
                                    337 	.area	OSEG    (OVR,DATA)
                                    338 ;--------------------------------------------------------
                                    339 ; indirectly addressable internal ram data
                                    340 ;--------------------------------------------------------
                                    341 	.area ISEG    (DATA)
                                    342 ;--------------------------------------------------------
                                    343 ; absolute internal ram data
                                    344 ;--------------------------------------------------------
                                    345 	.area IABS    (ABS,DATA)
                                    346 	.area IABS    (ABS,DATA)
                                    347 ;--------------------------------------------------------
                                    348 ; bit data
                                    349 ;--------------------------------------------------------
                                    350 	.area BSEG    (BIT)
                                    351 ;--------------------------------------------------------
                                    352 ; paged external ram data
                                    353 ;--------------------------------------------------------
                                    354 	.area PSEG    (PAG,XDATA)
                                    355 ;--------------------------------------------------------
                                    356 ; external ram data
                                    357 ;--------------------------------------------------------
                                    358 	.area XSEG    (XDATA)
                                    359 ;--------------------------------------------------------
                                    360 ; absolute external ram data
                                    361 ;--------------------------------------------------------
                                    362 	.area XABS    (ABS,XDATA)
                                    363 ;--------------------------------------------------------
                                    364 ; external initialized ram data
                                    365 ;--------------------------------------------------------
                                    366 	.area XISEG   (XDATA)
                                    367 	.area HOME    (CODE)
                                    368 	.area GSINIT0 (CODE)
                                    369 	.area GSINIT1 (CODE)
                                    370 	.area GSINIT2 (CODE)
                                    371 	.area GSINIT3 (CODE)
                                    372 	.area GSINIT4 (CODE)
                                    373 	.area GSINIT5 (CODE)
                                    374 	.area GSINIT  (CODE)
                                    375 	.area GSFINAL (CODE)
                                    376 	.area CSEG    (CODE)
                                    377 ;--------------------------------------------------------
                                    378 ; global & static initialisations
                                    379 ;--------------------------------------------------------
                                    380 	.area HOME    (CODE)
                                    381 	.area GSINIT  (CODE)
                                    382 	.area GSFINAL (CODE)
                                    383 	.area GSINIT  (CODE)
                                    384 ;--------------------------------------------------------
                                    385 ; Home
                                    386 ;--------------------------------------------------------
                                    387 	.area HOME    (CODE)
                                    388 	.area HOME    (CODE)
                                    389 ;--------------------------------------------------------
                                    390 ; code
                                    391 ;--------------------------------------------------------
                                    392 	.area CSEG    (CODE)
                                    393 ;------------------------------------------------------------
                                    394 ;Allocation info for local variables in function 'lcd_delay'
                                    395 ;------------------------------------------------------------
                                    396 ;i                         Allocated to registers r6 
                                    397 ;j                         Allocated to registers r7 
                                    398 ;------------------------------------------------------------
                                    399 ;	lib/lcd1602/lib_lcd1602.c:5: void lcd_delay(void)
                                    400 ;	-----------------------------------------
                                    401 ;	 function lcd_delay
                                    402 ;	-----------------------------------------
      000000                        403 _lcd_delay:
                           000007   404 	ar7 = 0x07
                           000006   405 	ar6 = 0x06
                           000005   406 	ar5 = 0x05
                           000004   407 	ar4 = 0x04
                           000003   408 	ar3 = 0x03
                           000002   409 	ar2 = 0x02
                           000001   410 	ar1 = 0x01
                           000000   411 	ar0 = 0x00
                                    412 ;	lib/lcd1602/lib_lcd1602.c:12: while (--j);
      000000 7F EF            [12]  413 	mov	r7,#0xef
      000002 7E 02            [12]  414 	mov	r6,#0x02
      000004                        415 00101$:
      000004 DF FE            [24]  416 	djnz	r7,00101$
                                    417 ;	lib/lcd1602/lib_lcd1602.c:13: } while (--i);
      000006 DE FC            [24]  418 	djnz	r6,00101$
                                    419 ;	lib/lcd1602/lib_lcd1602.c:14: }
      000008 22               [24]  420 	ret
                                    421 ;------------------------------------------------------------
                                    422 ;Allocation info for local variables in function 'lcd_pow'
                                    423 ;------------------------------------------------------------
                                    424 ;pow                       Allocated with name '_lcd_pow_PARM_2'
                                    425 ;num                       Allocated to registers r6 r7 
                                    426 ;i                         Allocated to registers r2 r3 
                                    427 ;result                    Allocated to registers r4 r5 
                                    428 ;------------------------------------------------------------
                                    429 ;	lib/lcd1602/lib_lcd1602.c:17: unsigned int lcd_pow(unsigned int num, unsigned int pow)
                                    430 ;	-----------------------------------------
                                    431 ;	 function lcd_pow
                                    432 ;	-----------------------------------------
      000009                        433 _lcd_pow:
      000009 AE 82            [24]  434 	mov	r6,dpl
      00000B AF 83            [24]  435 	mov	r7,dph
                                    436 ;	lib/lcd1602/lib_lcd1602.c:20: unsigned int result = 1;
      00000D 7C 01            [12]  437 	mov	r4,#0x01
      00000F 7D 00            [12]  438 	mov	r5,#0x00
                                    439 ;	lib/lcd1602/lib_lcd1602.c:22: for (i=0; i<pow; i++) {
      000011 7A 00            [12]  440 	mov	r2,#0x00
      000013 7B 00            [12]  441 	mov	r3,#0x00
      000015                        442 00103$:
      000015 C3               [12]  443 	clr	c
      000016 EA               [12]  444 	mov	a,r2
      000017 95*00            [12]  445 	subb	a,_lcd_pow_PARM_2
      000019 EB               [12]  446 	mov	a,r3
      00001A 95*01            [12]  447 	subb	a,(_lcd_pow_PARM_2 + 1)
      00001C 50 26            [24]  448 	jnc	00101$
                                    449 ;	lib/lcd1602/lib_lcd1602.c:23: result *= num;
      00001E 8E*00            [24]  450 	mov	__mulint_PARM_2,r6
      000020 8F*01            [24]  451 	mov	(__mulint_PARM_2 + 1),r7
      000022 8C 82            [24]  452 	mov	dpl,r4
      000024 8D 83            [24]  453 	mov	dph,r5
      000026 C0 07            [24]  454 	push	ar7
      000028 C0 06            [24]  455 	push	ar6
      00002A C0 03            [24]  456 	push	ar3
      00002C C0 02            [24]  457 	push	ar2
      00002E 12r00r00         [24]  458 	lcall	__mulint
      000031 AC 82            [24]  459 	mov	r4,dpl
      000033 AD 83            [24]  460 	mov	r5,dph
      000035 D0 02            [24]  461 	pop	ar2
      000037 D0 03            [24]  462 	pop	ar3
      000039 D0 06            [24]  463 	pop	ar6
      00003B D0 07            [24]  464 	pop	ar7
                                    465 ;	lib/lcd1602/lib_lcd1602.c:22: for (i=0; i<pow; i++) {
      00003D 0A               [12]  466 	inc	r2
      00003E BA 00 D4         [24]  467 	cjne	r2,#0x00,00103$
      000041 0B               [12]  468 	inc	r3
      000042 80 D1            [24]  469 	sjmp	00103$
      000044                        470 00101$:
                                    471 ;	lib/lcd1602/lib_lcd1602.c:26: return result;
      000044 8C 82            [24]  472 	mov	dpl,r4
      000046 8D 83            [24]  473 	mov	dph,r5
                                    474 ;	lib/lcd1602/lib_lcd1602.c:27: }
      000048 22               [24]  475 	ret
                                    476 ;------------------------------------------------------------
                                    477 ;Allocation info for local variables in function 'lcd_write_command'
                                    478 ;------------------------------------------------------------
                                    479 ;command                   Allocated to registers r7 
                                    480 ;------------------------------------------------------------
                                    481 ;	lib/lcd1602/lib_lcd1602.c:29: void lcd_write_command(unsigned char command)
                                    482 ;	-----------------------------------------
                                    483 ;	 function lcd_write_command
                                    484 ;	-----------------------------------------
      000049                        485 _lcd_write_command:
      000049 AF 82            [24]  486 	mov	r7,dpl
                                    487 ;	lib/lcd1602/lib_lcd1602.c:31: LCD_RS = 0;
                                    488 ;	assignBit
      00004B C2 92            [12]  489 	clr	_P1_2
                                    490 ;	lib/lcd1602/lib_lcd1602.c:32: LCD_WR = 0;
                                    491 ;	assignBit
      00004D C2 91            [12]  492 	clr	_P1_1
                                    493 ;	lib/lcd1602/lib_lcd1602.c:34: LCD_DATA_PORT = command;
      00004F 8F 80            [24]  494 	mov	_P0,r7
                                    495 ;	lib/lcd1602/lib_lcd1602.c:35: LCD_EN = 1;
                                    496 ;	assignBit
      000051 D2 90            [12]  497 	setb	_P1_0
                                    498 ;	lib/lcd1602/lib_lcd1602.c:36: lcd_delay();
      000053 12r00r00         [24]  499 	lcall	_lcd_delay
                                    500 ;	lib/lcd1602/lib_lcd1602.c:37: LCD_EN = 0;
                                    501 ;	assignBit
      000056 C2 90            [12]  502 	clr	_P1_0
                                    503 ;	lib/lcd1602/lib_lcd1602.c:38: lcd_delay();
                                    504 ;	lib/lcd1602/lib_lcd1602.c:39: }
      000058 02r00r00         [24]  505 	ljmp	_lcd_delay
                                    506 ;------------------------------------------------------------
                                    507 ;Allocation info for local variables in function 'lcd_write_data'
                                    508 ;------------------------------------------------------------
                                    509 ;data                      Allocated to registers r7 
                                    510 ;------------------------------------------------------------
                                    511 ;	lib/lcd1602/lib_lcd1602.c:41: void lcd_write_data(unsigned char data)
                                    512 ;	-----------------------------------------
                                    513 ;	 function lcd_write_data
                                    514 ;	-----------------------------------------
      00005B                        515 _lcd_write_data:
      00005B AF 82            [24]  516 	mov	r7,dpl
                                    517 ;	lib/lcd1602/lib_lcd1602.c:43: LCD_RS = 1;
                                    518 ;	assignBit
      00005D D2 92            [12]  519 	setb	_P1_2
                                    520 ;	lib/lcd1602/lib_lcd1602.c:44: LCD_WR = 0;
                                    521 ;	assignBit
      00005F C2 91            [12]  522 	clr	_P1_1
                                    523 ;	lib/lcd1602/lib_lcd1602.c:46: LCD_DATA_PORT = data;
      000061 8F 80            [24]  524 	mov	_P0,r7
                                    525 ;	lib/lcd1602/lib_lcd1602.c:47: LCD_EN = 1;
                                    526 ;	assignBit
      000063 D2 90            [12]  527 	setb	_P1_0
                                    528 ;	lib/lcd1602/lib_lcd1602.c:48: lcd_delay();
      000065 12r00r00         [24]  529 	lcall	_lcd_delay
                                    530 ;	lib/lcd1602/lib_lcd1602.c:49: LCD_EN = 0;
                                    531 ;	assignBit
      000068 C2 90            [12]  532 	clr	_P1_0
                                    533 ;	lib/lcd1602/lib_lcd1602.c:50: lcd_delay();
                                    534 ;	lib/lcd1602/lib_lcd1602.c:51: }
      00006A 02r00r00         [24]  535 	ljmp	_lcd_delay
                                    536 ;------------------------------------------------------------
                                    537 ;Allocation info for local variables in function 'lcd_1602_init'
                                    538 ;------------------------------------------------------------
                                    539 ;	lib/lcd1602/lib_lcd1602.c:53: void lcd_1602_init(void)
                                    540 ;	-----------------------------------------
                                    541 ;	 function lcd_1602_init
                                    542 ;	-----------------------------------------
      00006D                        543 _lcd_1602_init:
                                    544 ;	lib/lcd1602/lib_lcd1602.c:56: lcd_write_command(0x06);
      00006D 75 82 06         [24]  545 	mov	dpl,#0x06
      000070 12r00r49         [24]  546 	lcall	_lcd_write_command
                                    547 ;	lib/lcd1602/lib_lcd1602.c:58: lcd_write_command(0x0C);
      000073 75 82 0C         [24]  548 	mov	dpl,#0x0c
      000076 12r00r49         [24]  549 	lcall	_lcd_write_command
                                    550 ;	lib/lcd1602/lib_lcd1602.c:60: lcd_write_command(0x38);
      000079 75 82 38         [24]  551 	mov	dpl,#0x38
      00007C 12r00r49         [24]  552 	lcall	_lcd_write_command
                                    553 ;	lib/lcd1602/lib_lcd1602.c:62: lcd_write_command(0x01);
      00007F 75 82 01         [24]  554 	mov	dpl,#0x01
                                    555 ;	lib/lcd1602/lib_lcd1602.c:63: }
      000082 02r00r49         [24]  556 	ljmp	_lcd_write_command
                                    557 ;------------------------------------------------------------
                                    558 ;Allocation info for local variables in function 'lcd_set_ac'
                                    559 ;------------------------------------------------------------
                                    560 ;column                    Allocated with name '_lcd_set_ac_PARM_2'
                                    561 ;line                      Allocated to registers r6 r7 
                                    562 ;------------------------------------------------------------
                                    563 ;	lib/lcd1602/lib_lcd1602.c:65: void lcd_set_ac(unsigned int line, unsigned int column)
                                    564 ;	-----------------------------------------
                                    565 ;	 function lcd_set_ac
                                    566 ;	-----------------------------------------
      000085                        567 _lcd_set_ac:
      000085 AE 82            [24]  568 	mov	r6,dpl
      000087 AF 83            [24]  569 	mov	r7,dph
                                    570 ;	lib/lcd1602/lib_lcd1602.c:67: if (line == 1) {
      000089 BE 01 0E         [24]  571 	cjne	r6,#0x01,00102$
      00008C BF 00 0B         [24]  572 	cjne	r7,#0x00,00102$
                                    573 ;	lib/lcd1602/lib_lcd1602.c:68: lcd_write_command(0x80 | (column - 1));
      00008F AF*02            [24]  574 	mov	r7,_lcd_set_ac_PARM_2
      000091 1F               [12]  575 	dec	r7
      000092 74 80            [12]  576 	mov	a,#0x80
      000094 4F               [12]  577 	orl	a,r7
      000095 F5 82            [12]  578 	mov	dpl,a
      000097 02r00r49         [24]  579 	ljmp	_lcd_write_command
      00009A                        580 00102$:
                                    581 ;	lib/lcd1602/lib_lcd1602.c:70: lcd_write_command(0x80 | ((column - 1) + 0x40));
      00009A AF*02            [24]  582 	mov	r7,_lcd_set_ac_PARM_2
      00009C 74 3F            [12]  583 	mov	a,#0x3f
      00009E 2F               [12]  584 	add	a,r7
      00009F FF               [12]  585 	mov	r7,a
      0000A0 74 80            [12]  586 	mov	a,#0x80
      0000A2 4F               [12]  587 	orl	a,r7
      0000A3 F5 82            [12]  588 	mov	dpl,a
                                    589 ;	lib/lcd1602/lib_lcd1602.c:72: }
      0000A5 02r00r49         [24]  590 	ljmp	_lcd_write_command
                                    591 ;------------------------------------------------------------
                                    592 ;Allocation info for local variables in function 'lcd_show_char'
                                    593 ;------------------------------------------------------------
                                    594 ;column                    Allocated with name '_lcd_show_char_PARM_2'
                                    595 ;show_char                 Allocated with name '_lcd_show_char_PARM_3'
                                    596 ;line                      Allocated to registers 
                                    597 ;------------------------------------------------------------
                                    598 ;	lib/lcd1602/lib_lcd1602.c:74: void lcd_show_char(unsigned int line, unsigned int column, unsigned char show_char)
                                    599 ;	-----------------------------------------
                                    600 ;	 function lcd_show_char
                                    601 ;	-----------------------------------------
      0000A8                        602 _lcd_show_char:
                                    603 ;	lib/lcd1602/lib_lcd1602.c:76: lcd_set_ac(line, column);
      0000A8 85*04*02         [24]  604 	mov	_lcd_set_ac_PARM_2,_lcd_show_char_PARM_2
      0000AB 85*05*03         [24]  605 	mov	(_lcd_set_ac_PARM_2 + 1),(_lcd_show_char_PARM_2 + 1)
      0000AE 12r00r85         [24]  606 	lcall	_lcd_set_ac
                                    607 ;	lib/lcd1602/lib_lcd1602.c:77: lcd_write_data(show_char);
      0000B1 85*06 82         [24]  608 	mov	dpl,_lcd_show_char_PARM_3
                                    609 ;	lib/lcd1602/lib_lcd1602.c:78: }
      0000B4 02r00r5B         [24]  610 	ljmp	_lcd_write_data
                                    611 ;------------------------------------------------------------
                                    612 ;Allocation info for local variables in function 'lcd_show_string'
                                    613 ;------------------------------------------------------------
                                    614 ;column                    Allocated with name '_lcd_show_string_PARM_2'
                                    615 ;show_string               Allocated with name '_lcd_show_string_PARM_3'
                                    616 ;line                      Allocated to registers 
                                    617 ;i                         Allocated to registers r6 r7 
                                    618 ;------------------------------------------------------------
                                    619 ;	lib/lcd1602/lib_lcd1602.c:80: void lcd_show_string(unsigned int line, unsigned int column, unsigned char *show_string)
                                    620 ;	-----------------------------------------
                                    621 ;	 function lcd_show_string
                                    622 ;	-----------------------------------------
      0000B7                        623 _lcd_show_string:
                                    624 ;	lib/lcd1602/lib_lcd1602.c:82: lcd_set_ac(line, column);
      0000B7 85*07*02         [24]  625 	mov	_lcd_set_ac_PARM_2,_lcd_show_string_PARM_2
      0000BA 85*08*03         [24]  626 	mov	(_lcd_set_ac_PARM_2 + 1),(_lcd_show_string_PARM_2 + 1)
      0000BD 12r00r85         [24]  627 	lcall	_lcd_set_ac
                                    628 ;	lib/lcd1602/lib_lcd1602.c:85: while (show_string[i] != '\0') {
      0000C0 7E 00            [12]  629 	mov	r6,#0x00
      0000C2 7F 00            [12]  630 	mov	r7,#0x00
      0000C4                        631 00101$:
      0000C4 EE               [12]  632 	mov	a,r6
      0000C5 25*09            [12]  633 	add	a,_lcd_show_string_PARM_3
      0000C7 FB               [12]  634 	mov	r3,a
      0000C8 EF               [12]  635 	mov	a,r7
      0000C9 35*0A            [12]  636 	addc	a,(_lcd_show_string_PARM_3 + 1)
      0000CB FC               [12]  637 	mov	r4,a
      0000CC AD*0B            [24]  638 	mov	r5,(_lcd_show_string_PARM_3 + 2)
      0000CE 8B 82            [24]  639 	mov	dpl,r3
      0000D0 8C 83            [24]  640 	mov	dph,r4
      0000D2 8D F0            [24]  641 	mov	b,r5
      0000D4 12r00r00         [24]  642 	lcall	__gptrget
      0000D7 FD               [12]  643 	mov	r5,a
      0000D8 60 14            [24]  644 	jz	00104$
                                    645 ;	lib/lcd1602/lib_lcd1602.c:86: lcd_write_data(show_string[i]);
      0000DA 8D 82            [24]  646 	mov	dpl,r5
      0000DC C0 07            [24]  647 	push	ar7
      0000DE C0 06            [24]  648 	push	ar6
      0000E0 12r00r5B         [24]  649 	lcall	_lcd_write_data
      0000E3 D0 06            [24]  650 	pop	ar6
      0000E5 D0 07            [24]  651 	pop	ar7
                                    652 ;	lib/lcd1602/lib_lcd1602.c:87: i++;
      0000E7 0E               [12]  653 	inc	r6
      0000E8 BE 00 D9         [24]  654 	cjne	r6,#0x00,00101$
      0000EB 0F               [12]  655 	inc	r7
      0000EC 80 D6            [24]  656 	sjmp	00101$
      0000EE                        657 00104$:
                                    658 ;	lib/lcd1602/lib_lcd1602.c:89: }
      0000EE 22               [24]  659 	ret
                                    660 ;------------------------------------------------------------
                                    661 ;Allocation info for local variables in function 'lcd_show_int_num'
                                    662 ;------------------------------------------------------------
                                    663 ;column                    Allocated with name '_lcd_show_int_num_PARM_2'
                                    664 ;num                       Allocated with name '_lcd_show_int_num_PARM_3'
                                    665 ;length                    Allocated with name '_lcd_show_int_num_PARM_4'
                                    666 ;line                      Allocated to registers 
                                    667 ;i                         Allocated to registers r6 r7 
                                    668 ;------------------------------------------------------------
                                    669 ;	lib/lcd1602/lib_lcd1602.c:91: void lcd_show_int_num(unsigned int line, unsigned int column, unsigned int num, unsigned int length)
                                    670 ;	-----------------------------------------
                                    671 ;	 function lcd_show_int_num
                                    672 ;	-----------------------------------------
      0000EF                        673 _lcd_show_int_num:
                                    674 ;	lib/lcd1602/lib_lcd1602.c:93: lcd_set_ac(line, column);
      0000EF 85*0C*02         [24]  675 	mov	_lcd_set_ac_PARM_2,_lcd_show_int_num_PARM_2
      0000F2 85*0D*03         [24]  676 	mov	(_lcd_set_ac_PARM_2 + 1),(_lcd_show_int_num_PARM_2 + 1)
      0000F5 12r00r85         [24]  677 	lcall	_lcd_set_ac
                                    678 ;	lib/lcd1602/lib_lcd1602.c:96: for (i=length; i>0; i--) {
      0000F8 AE*10            [24]  679 	mov	r6,_lcd_show_int_num_PARM_4
      0000FA AF*11            [24]  680 	mov	r7,(_lcd_show_int_num_PARM_4 + 1)
      0000FC                        681 00103$:
      0000FC EE               [12]  682 	mov	a,r6
      0000FD 4F               [12]  683 	orl	a,r7
      0000FE 60 42            [24]  684 	jz	00105$
                                    685 ;	lib/lcd1602/lib_lcd1602.c:97: lcd_write_data('0' + ((num / lcd_pow(10, i-1)) % 10));
      000100 EE               [12]  686 	mov	a,r6
      000101 24 FF            [12]  687 	add	a,#0xff
      000103 FC               [12]  688 	mov	r4,a
      000104 EF               [12]  689 	mov	a,r7
      000105 34 FF            [12]  690 	addc	a,#0xff
      000107 FD               [12]  691 	mov	r5,a
      000108 8C*00            [24]  692 	mov	_lcd_pow_PARM_2,r4
      00010A 8D*01            [24]  693 	mov	(_lcd_pow_PARM_2 + 1),r5
      00010C 90 00 0A         [24]  694 	mov	dptr,#0x000a
      00010F C0 05            [24]  695 	push	ar5
      000111 C0 04            [24]  696 	push	ar4
      000113 12r00r09         [24]  697 	lcall	_lcd_pow
      000116 85 82*00         [24]  698 	mov	__divuint_PARM_2,dpl
      000119 85 83*01         [24]  699 	mov	(__divuint_PARM_2 + 1),dph
      00011C 85*0E 82         [24]  700 	mov	dpl,_lcd_show_int_num_PARM_3
      00011F 85*0F 83         [24]  701 	mov	dph,(_lcd_show_int_num_PARM_3 + 1)
      000122 12r00r00         [24]  702 	lcall	__divuint
      000125 75*00 0A         [24]  703 	mov	__moduint_PARM_2,#0x0a
      000128 75*01 00         [24]  704 	mov	(__moduint_PARM_2 + 1),#0x00
      00012B 12r00r00         [24]  705 	lcall	__moduint
      00012E AA 82            [24]  706 	mov	r2,dpl
      000130 74 30            [12]  707 	mov	a,#0x30
      000132 2A               [12]  708 	add	a,r2
      000133 F5 82            [12]  709 	mov	dpl,a
      000135 12r00r5B         [24]  710 	lcall	_lcd_write_data
      000138 D0 04            [24]  711 	pop	ar4
      00013A D0 05            [24]  712 	pop	ar5
                                    713 ;	lib/lcd1602/lib_lcd1602.c:96: for (i=length; i>0; i--) {
      00013C 8C 06            [24]  714 	mov	ar6,r4
      00013E 8D 07            [24]  715 	mov	ar7,r5
      000140 80 BA            [24]  716 	sjmp	00103$
      000142                        717 00105$:
                                    718 ;	lib/lcd1602/lib_lcd1602.c:99: }
      000142 22               [24]  719 	ret
                                    720 ;------------------------------------------------------------
                                    721 ;Allocation info for local variables in function 'lcd_show_dec_num'
                                    722 ;------------------------------------------------------------
                                    723 ;column                    Allocated with name '_lcd_show_dec_num_PARM_2'
                                    724 ;num                       Allocated with name '_lcd_show_dec_num_PARM_3'
                                    725 ;length                    Allocated with name '_lcd_show_dec_num_PARM_4'
                                    726 ;line                      Allocated to registers 
                                    727 ;single_num                Allocated to registers r6 r7 
                                    728 ;i                         Allocated to registers r4 r5 
                                    729 ;------------------------------------------------------------
                                    730 ;	lib/lcd1602/lib_lcd1602.c:101: void lcd_show_dec_num(unsigned int line, unsigned int column, int num, unsigned int length)
                                    731 ;	-----------------------------------------
                                    732 ;	 function lcd_show_dec_num
                                    733 ;	-----------------------------------------
      000143                        734 _lcd_show_dec_num:
                                    735 ;	lib/lcd1602/lib_lcd1602.c:103: lcd_set_ac(line, column);
      000143 85*12*02         [24]  736 	mov	_lcd_set_ac_PARM_2,_lcd_show_dec_num_PARM_2
      000146 85*13*03         [24]  737 	mov	(_lcd_set_ac_PARM_2 + 1),(_lcd_show_dec_num_PARM_2 + 1)
      000149 12r00r85         [24]  738 	lcall	_lcd_set_ac
                                    739 ;	lib/lcd1602/lib_lcd1602.c:106: if (num < 0) {
      00014C E5*15            [12]  740 	mov	a,(_lcd_show_dec_num_PARM_3 + 1)
      00014E 30 E7 19         [24]  741 	jnb	acc.7,00102$
                                    742 ;	lib/lcd1602/lib_lcd1602.c:107: single_num = -num;
      000151 C3               [12]  743 	clr	c
      000152 E4               [12]  744 	clr	a
      000153 95*14            [12]  745 	subb	a,_lcd_show_dec_num_PARM_3
      000155 FE               [12]  746 	mov	r6,a
      000156 E4               [12]  747 	clr	a
      000157 95*15            [12]  748 	subb	a,(_lcd_show_dec_num_PARM_3 + 1)
      000159 FF               [12]  749 	mov	r7,a
                                    750 ;	lib/lcd1602/lib_lcd1602.c:108: lcd_write_data('-');
      00015A 75 82 2D         [24]  751 	mov	dpl,#0x2d
      00015D C0 07            [24]  752 	push	ar7
      00015F C0 06            [24]  753 	push	ar6
      000161 12r00r5B         [24]  754 	lcall	_lcd_write_data
      000164 D0 06            [24]  755 	pop	ar6
      000166 D0 07            [24]  756 	pop	ar7
      000168 80 12            [24]  757 	sjmp	00103$
      00016A                        758 00102$:
                                    759 ;	lib/lcd1602/lib_lcd1602.c:110: single_num = num;
      00016A AE*14            [24]  760 	mov	r6,_lcd_show_dec_num_PARM_3
      00016C AF*15            [24]  761 	mov	r7,(_lcd_show_dec_num_PARM_3 + 1)
                                    762 ;	lib/lcd1602/lib_lcd1602.c:111: lcd_write_data('+');
      00016E 75 82 2B         [24]  763 	mov	dpl,#0x2b
      000171 C0 07            [24]  764 	push	ar7
      000173 C0 06            [24]  765 	push	ar6
      000175 12r00r5B         [24]  766 	lcall	_lcd_write_data
      000178 D0 06            [24]  767 	pop	ar6
      00017A D0 07            [24]  768 	pop	ar7
      00017C                        769 00103$:
                                    770 ;	lib/lcd1602/lib_lcd1602.c:114: for (i=length; i>0; i--) {
      00017C AC*16            [24]  771 	mov	r4,_lcd_show_dec_num_PARM_4
      00017E AD*17            [24]  772 	mov	r5,(_lcd_show_dec_num_PARM_4 + 1)
      000180                        773 00106$:
      000180 EC               [12]  774 	mov	a,r4
      000181 4D               [12]  775 	orl	a,r5
      000182 70 01            [24]  776 	jnz	00125$
      000184 22               [24]  777 	ret
      000185                        778 00125$:
                                    779 ;	lib/lcd1602/lib_lcd1602.c:115: lcd_write_data('0' + ((single_num / lcd_pow(10, i-1)) % 10));
      000185 EC               [12]  780 	mov	a,r4
      000186 24 FF            [12]  781 	add	a,#0xff
      000188 FA               [12]  782 	mov	r2,a
      000189 ED               [12]  783 	mov	a,r5
      00018A 34 FF            [12]  784 	addc	a,#0xff
      00018C FB               [12]  785 	mov	r3,a
      00018D 8A*00            [24]  786 	mov	_lcd_pow_PARM_2,r2
      00018F 8B*01            [24]  787 	mov	(_lcd_pow_PARM_2 + 1),r3
      000191 90 00 0A         [24]  788 	mov	dptr,#0x000a
      000194 C0 07            [24]  789 	push	ar7
      000196 C0 06            [24]  790 	push	ar6
      000198 C0 03            [24]  791 	push	ar3
      00019A C0 02            [24]  792 	push	ar2
      00019C 12r00r09         [24]  793 	lcall	_lcd_pow
      00019F 85 82*00         [24]  794 	mov	__divuint_PARM_2,dpl
      0001A2 85 83*01         [24]  795 	mov	(__divuint_PARM_2 + 1),dph
      0001A5 D0 02            [24]  796 	pop	ar2
      0001A7 D0 03            [24]  797 	pop	ar3
      0001A9 D0 06            [24]  798 	pop	ar6
      0001AB D0 07            [24]  799 	pop	ar7
      0001AD 8E 82            [24]  800 	mov	dpl,r6
      0001AF 8F 83            [24]  801 	mov	dph,r7
      0001B1 C0 07            [24]  802 	push	ar7
      0001B3 C0 06            [24]  803 	push	ar6
      0001B5 C0 03            [24]  804 	push	ar3
      0001B7 C0 02            [24]  805 	push	ar2
      0001B9 12r00r00         [24]  806 	lcall	__divuint
      0001BC 75*00 0A         [24]  807 	mov	__moduint_PARM_2,#0x0a
      0001BF 75*01 00         [24]  808 	mov	(__moduint_PARM_2 + 1),#0x00
      0001C2 12r00r00         [24]  809 	lcall	__moduint
      0001C5 A8 82            [24]  810 	mov	r0,dpl
      0001C7 74 30            [12]  811 	mov	a,#0x30
      0001C9 28               [12]  812 	add	a,r0
      0001CA F5 82            [12]  813 	mov	dpl,a
      0001CC 12r00r5B         [24]  814 	lcall	_lcd_write_data
      0001CF D0 02            [24]  815 	pop	ar2
      0001D1 D0 03            [24]  816 	pop	ar3
      0001D3 D0 06            [24]  817 	pop	ar6
      0001D5 D0 07            [24]  818 	pop	ar7
                                    819 ;	lib/lcd1602/lib_lcd1602.c:114: for (i=length; i>0; i--) {
      0001D7 8A 04            [24]  820 	mov	ar4,r2
      0001D9 8B 05            [24]  821 	mov	ar5,r3
                                    822 ;	lib/lcd1602/lib_lcd1602.c:117: }
      0001DB 02r01r80         [24]  823 	ljmp	00106$
                                    824 ;------------------------------------------------------------
                                    825 ;Allocation info for local variables in function 'lcd_show_hex_num'
                                    826 ;------------------------------------------------------------
                                    827 ;column                    Allocated with name '_lcd_show_hex_num_PARM_2'
                                    828 ;hex_num                   Allocated with name '_lcd_show_hex_num_PARM_3'
                                    829 ;length                    Allocated with name '_lcd_show_hex_num_PARM_4'
                                    830 ;line                      Allocated to registers 
                                    831 ;i                         Allocated to registers 
                                    832 ;single_num                Allocated to registers r4 r5 
                                    833 ;------------------------------------------------------------
                                    834 ;	lib/lcd1602/lib_lcd1602.c:119: void lcd_show_hex_num   (
                                    835 ;	-----------------------------------------
                                    836 ;	 function lcd_show_hex_num
                                    837 ;	-----------------------------------------
      0001DE                        838 _lcd_show_hex_num:
                                    839 ;	lib/lcd1602/lib_lcd1602.c:126: lcd_set_ac(line, column);
      0001DE 85*18*02         [24]  840 	mov	_lcd_set_ac_PARM_2,_lcd_show_hex_num_PARM_2
      0001E1 85*19*03         [24]  841 	mov	(_lcd_set_ac_PARM_2 + 1),(_lcd_show_hex_num_PARM_2 + 1)
      0001E4 12r00r85         [24]  842 	lcall	_lcd_set_ac
                                    843 ;	lib/lcd1602/lib_lcd1602.c:129: for (i=length; i>0; i--) {
      0001E7 AE*1B            [24]  844 	mov	r6,_lcd_show_hex_num_PARM_4
      0001E9 AF*1C            [24]  845 	mov	r7,(_lcd_show_hex_num_PARM_4 + 1)
      0001EB                        846 00106$:
      0001EB EE               [12]  847 	mov	a,r6
      0001EC 4F               [12]  848 	orl	a,r7
      0001ED 60 67            [24]  849 	jz	00108$
                                    850 ;	lib/lcd1602/lib_lcd1602.c:130: single_num = hex_num / lcd_pow(16, i-1) % 16;
      0001EF EE               [12]  851 	mov	a,r6
      0001F0 24 FF            [12]  852 	add	a,#0xff
      0001F2 F5*00            [12]  853 	mov	_lcd_pow_PARM_2,a
      0001F4 EF               [12]  854 	mov	a,r7
      0001F5 34 FF            [12]  855 	addc	a,#0xff
      0001F7 F5*01            [12]  856 	mov	(_lcd_pow_PARM_2 + 1),a
      0001F9 90 00 10         [24]  857 	mov	dptr,#0x0010
      0001FC C0 07            [24]  858 	push	ar7
      0001FE C0 06            [24]  859 	push	ar6
      000200 12r00r09         [24]  860 	lcall	_lcd_pow
      000203 85 82*00         [24]  861 	mov	__divuint_PARM_2,dpl
      000206 85 83*01         [24]  862 	mov	(__divuint_PARM_2 + 1),dph
      000209 AC*1A            [24]  863 	mov	r4,_lcd_show_hex_num_PARM_3
      00020B 7D 00            [12]  864 	mov	r5,#0x00
      00020D 8C 82            [24]  865 	mov	dpl,r4
      00020F 8D 83            [24]  866 	mov	dph,r5
      000211 12r00r00         [24]  867 	lcall	__divuint
      000214 E5 82            [12]  868 	mov	a,dpl
      000216 85 83 F0         [24]  869 	mov	b,dph
      000219 D0 06            [24]  870 	pop	ar6
      00021B D0 07            [24]  871 	pop	ar7
      00021D 54 0F            [12]  872 	anl	a,#0x0f
      00021F FC               [12]  873 	mov	r4,a
      000220 7D 00            [12]  874 	mov	r5,#0x00
                                    875 ;	lib/lcd1602/lib_lcd1602.c:131: if (single_num < 10) {
      000222 C3               [12]  876 	clr	c
      000223 EC               [12]  877 	mov	a,r4
      000224 94 0A            [12]  878 	subb	a,#0x0a
      000226 ED               [12]  879 	mov	a,r5
      000227 94 00            [12]  880 	subb	a,#0x00
      000229 50 14            [24]  881 	jnc	00102$
                                    882 ;	lib/lcd1602/lib_lcd1602.c:132: lcd_write_data('0' + single_num);
      00022B 8C 03            [24]  883 	mov	ar3,r4
      00022D 74 30            [12]  884 	mov	a,#0x30
      00022F 2B               [12]  885 	add	a,r3
      000230 F5 82            [12]  886 	mov	dpl,a
      000232 C0 07            [24]  887 	push	ar7
      000234 C0 06            [24]  888 	push	ar6
      000236 12r00r5B         [24]  889 	lcall	_lcd_write_data
      000239 D0 06            [24]  890 	pop	ar6
      00023B D0 07            [24]  891 	pop	ar7
      00023D 80 10            [24]  892 	sjmp	00107$
      00023F                        893 00102$:
                                    894 ;	lib/lcd1602/lib_lcd1602.c:134: lcd_write_data('A' + single_num - 10);
      00023F 74 37            [12]  895 	mov	a,#0x37
      000241 2C               [12]  896 	add	a,r4
      000242 F5 82            [12]  897 	mov	dpl,a
      000244 C0 07            [24]  898 	push	ar7
      000246 C0 06            [24]  899 	push	ar6
      000248 12r00r5B         [24]  900 	lcall	_lcd_write_data
      00024B D0 06            [24]  901 	pop	ar6
      00024D D0 07            [24]  902 	pop	ar7
      00024F                        903 00107$:
                                    904 ;	lib/lcd1602/lib_lcd1602.c:129: for (i=length; i>0; i--) {
      00024F 1E               [12]  905 	dec	r6
      000250 BE FF 01         [24]  906 	cjne	r6,#0xff,00127$
      000253 1F               [12]  907 	dec	r7
      000254                        908 00127$:
      000254 80 95            [24]  909 	sjmp	00106$
      000256                        910 00108$:
                                    911 ;	lib/lcd1602/lib_lcd1602.c:137: }
      000256 22               [24]  912 	ret
                                    913 ;------------------------------------------------------------
                                    914 ;Allocation info for local variables in function 'lcd_show_bin_num'
                                    915 ;------------------------------------------------------------
                                    916 ;column                    Allocated with name '_lcd_show_bin_num_PARM_2'
                                    917 ;bin_num                   Allocated with name '_lcd_show_bin_num_PARM_3'
                                    918 ;length                    Allocated with name '_lcd_show_bin_num_PARM_4'
                                    919 ;line                      Allocated to registers 
                                    920 ;i                         Allocated to registers r6 r7 
                                    921 ;------------------------------------------------------------
                                    922 ;	lib/lcd1602/lib_lcd1602.c:139: void lcd_show_bin_num   (
                                    923 ;	-----------------------------------------
                                    924 ;	 function lcd_show_bin_num
                                    925 ;	-----------------------------------------
      000257                        926 _lcd_show_bin_num:
                                    927 ;	lib/lcd1602/lib_lcd1602.c:146: lcd_set_ac(line, column);
      000257 85*1D*02         [24]  928 	mov	_lcd_set_ac_PARM_2,_lcd_show_bin_num_PARM_2
      00025A 85*1E*03         [24]  929 	mov	(_lcd_set_ac_PARM_2 + 1),(_lcd_show_bin_num_PARM_2 + 1)
      00025D 12r00r85         [24]  930 	lcall	_lcd_set_ac
                                    931 ;	lib/lcd1602/lib_lcd1602.c:149: for (i=length; i>0; i--) {
      000260 AE*21            [24]  932 	mov	r6,_lcd_show_bin_num_PARM_4
      000262 AF*22            [24]  933 	mov	r7,(_lcd_show_bin_num_PARM_4 + 1)
      000264                        934 00103$:
      000264 EE               [12]  935 	mov	a,r6
      000265 4F               [12]  936 	orl	a,r7
      000266 60 3D            [24]  937 	jz	00105$
                                    938 ;	lib/lcd1602/lib_lcd1602.c:150: lcd_write_data('0' + bin_num / lcd_pow(2, i-1) % 2);
      000268 EE               [12]  939 	mov	a,r6
      000269 24 FF            [12]  940 	add	a,#0xff
      00026B FC               [12]  941 	mov	r4,a
      00026C EF               [12]  942 	mov	a,r7
      00026D 34 FF            [12]  943 	addc	a,#0xff
      00026F FD               [12]  944 	mov	r5,a
      000270 8C*00            [24]  945 	mov	_lcd_pow_PARM_2,r4
      000272 8D*01            [24]  946 	mov	(_lcd_pow_PARM_2 + 1),r5
      000274 90 00 02         [24]  947 	mov	dptr,#0x0002
      000277 C0 05            [24]  948 	push	ar5
      000279 C0 04            [24]  949 	push	ar4
      00027B 12r00r09         [24]  950 	lcall	_lcd_pow
      00027E 85 82*00         [24]  951 	mov	__divuint_PARM_2,dpl
      000281 85 83*01         [24]  952 	mov	(__divuint_PARM_2 + 1),dph
      000284 85*1F 82         [24]  953 	mov	dpl,_lcd_show_bin_num_PARM_3
      000287 85*20 83         [24]  954 	mov	dph,(_lcd_show_bin_num_PARM_3 + 1)
      00028A 12r00r00         [24]  955 	lcall	__divuint
      00028D E5 82            [12]  956 	mov	a,dpl
      00028F 85 83 F0         [24]  957 	mov	b,dph
      000292 54 01            [12]  958 	anl	a,#0x01
      000294 24 30            [12]  959 	add	a,#0x30
      000296 F5 82            [12]  960 	mov	dpl,a
      000298 12r00r5B         [24]  961 	lcall	_lcd_write_data
      00029B D0 04            [24]  962 	pop	ar4
      00029D D0 05            [24]  963 	pop	ar5
                                    964 ;	lib/lcd1602/lib_lcd1602.c:149: for (i=length; i>0; i--) {
      00029F 8C 06            [24]  965 	mov	ar6,r4
      0002A1 8D 07            [24]  966 	mov	ar7,r5
      0002A3 80 BF            [24]  967 	sjmp	00103$
      0002A5                        968 00105$:
                                    969 ;	lib/lcd1602/lib_lcd1602.c:152: }
      0002A5 22               [24]  970 	ret
                                    971 	.area CSEG    (CODE)
                                    972 	.area CONST   (CODE)
                                    973 	.area XINIT   (CODE)
                                    974 	.area CABS    (ABS,CODE)
